   1              		.cpu cortex-m0
   2              		.fpu softvfp
   3              		.eabi_attribute 20, 1
   4              		.eabi_attribute 21, 1
   5              		.eabi_attribute 23, 3
   6              		.eabi_attribute 24, 1
   7              		.eabi_attribute 25, 1
   8              		.eabi_attribute 26, 1
   9              		.eabi_attribute 30, 6
  10              		.eabi_attribute 34, 0
  11              		.eabi_attribute 18, 4
  12              		.code	16
  13              		.file	"tasks.c"
  14              		.text
  15              	.Ltext0:
  16              		.cfi_sections	.debug_frame
  17              		.global	pxCurrentTCB
  18              		.section	.bss.pxCurrentTCB,"aw",%nobits
  19              		.align	2
  22              	pxCurrentTCB:
  23 0000 00000000 		.space	4
  24              		.section	.bss._ZL17pxReadyTasksLists,"aw",%nobits
  25              		.align	2
  28              	_ZL17pxReadyTasksLists:
  29 0000 00000000 		.space	120
  29      00000000 
  29      00000000 
  29      00000000 
  29      00000000 
  30              		.section	.bss._ZL17xDelayedTaskList1,"aw",%nobits
  31              		.align	2
  34              	_ZL17xDelayedTaskList1:
  35 0000 00000000 		.space	20
  35      00000000 
  35      00000000 
  35      00000000 
  35      00000000 
  36              		.section	.bss._ZL17xDelayedTaskList2,"aw",%nobits
  37              		.align	2
  40              	_ZL17xDelayedTaskList2:
  41 0000 00000000 		.space	20
  41      00000000 
  41      00000000 
  41      00000000 
  41      00000000 
  42              		.section	.bss._ZL17pxDelayedTaskList,"aw",%nobits
  43              		.align	2
  46              	_ZL17pxDelayedTaskList:
  47 0000 00000000 		.space	4
  48              		.section	.bss._ZL25pxOverflowDelayedTaskList,"aw",%nobits
  49              		.align	2
  52              	_ZL25pxOverflowDelayedTaskList:
  53 0000 00000000 		.space	4
  54              		.section	.bss._ZL17xPendingReadyList,"aw",%nobits
  55              		.align	2
  58              	_ZL17xPendingReadyList:
  59 0000 00000000 		.space	20
  59      00000000 
  59      00000000 
  59      00000000 
  59      00000000 
  60              		.section	.bss._ZL18xSuspendedTaskList,"aw",%nobits
  61              		.align	2
  64              	_ZL18xSuspendedTaskList:
  65 0000 00000000 		.space	20
  65      00000000 
  65      00000000 
  65      00000000 
  65      00000000 
  66              		.section	.bss._ZL22uxCurrentNumberOfTasks,"aw",%nobits
  67              		.align	2
  70              	_ZL22uxCurrentNumberOfTasks:
  71 0000 00000000 		.space	4
  72              		.section	.bss._ZL10xTickCount,"aw",%nobits
  73              		.align	2
  76              	_ZL10xTickCount:
  77 0000 00000000 		.space	4
  78              		.section	.bss._ZL18uxTopReadyPriority,"aw",%nobits
  79              		.align	2
  82              	_ZL18uxTopReadyPriority:
  83 0000 00000000 		.space	4
  84              		.section	.bss._ZL17xSchedulerRunning,"aw",%nobits
  85              		.align	2
  88              	_ZL17xSchedulerRunning:
  89 0000 00000000 		.space	4
  90              		.section	.bss._ZL13uxPendedTicks,"aw",%nobits
  91              		.align	2
  94              	_ZL13uxPendedTicks:
  95 0000 00000000 		.space	4
  96              		.section	.bss._ZL13xYieldPending,"aw",%nobits
  97              		.align	2
 100              	_ZL13xYieldPending:
 101 0000 00000000 		.space	4
 102              		.section	.bss._ZL15xNumOfOverflows,"aw",%nobits
 103              		.align	2
 106              	_ZL15xNumOfOverflows:
 107 0000 00000000 		.space	4
 108              		.section	.bss._ZL12uxTaskNumber,"aw",%nobits
 109              		.align	2
 112              	_ZL12uxTaskNumber:
 113 0000 00000000 		.space	4
 114              		.section	.data._ZL20xNextTaskUnblockTime,"aw",%progbits
 115              		.align	2
 118              	_ZL20xNextTaskUnblockTime:
 119 0000 FFFFFFFF 		.word	-1
 120              		.section	.bss._ZL20uxSchedulerSuspended,"aw",%nobits
 121              		.align	2
 124              	_ZL20uxSchedulerSuspended:
 125 0000 00000000 		.space	4
 126              		.section	.text.xTaskGenericCreate,"ax",%progbits
 127              		.align	2
 128              		.global	xTaskGenericCreate
 129              		.code	16
 130              		.thumb_func
 132              	xTaskGenericCreate:
 133              	.LFB9:
 134              		.file 1 "../Generated_Code/tasks.c"
   1:../Generated_Code/tasks.c **** /*
   2:../Generated_Code/tasks.c ****     FreeRTOS V8.0.0 - Copyright (C) 2014 Real Time Engineers Ltd.
   3:../Generated_Code/tasks.c ****     All rights reserved
   4:../Generated_Code/tasks.c **** 
   5:../Generated_Code/tasks.c ****     VISIT http://www.FreeRTOS.org TO ENSURE YOU ARE USING THE LATEST VERSION.
   6:../Generated_Code/tasks.c **** 
   7:../Generated_Code/tasks.c ****     ***************************************************************************
   8:../Generated_Code/tasks.c ****      *                                                                       *
   9:../Generated_Code/tasks.c ****      *    FreeRTOS provides completely free yet professionally developed,    *
  10:../Generated_Code/tasks.c ****      *    robust, strictly quality controlled, supported, and cross          *
  11:../Generated_Code/tasks.c ****      *    platform software that has become a de facto standard.             *
  12:../Generated_Code/tasks.c ****      *                                                                       *
  13:../Generated_Code/tasks.c ****      *    Help yourself get started quickly and support the FreeRTOS         *
  14:../Generated_Code/tasks.c ****      *    project by purchasing a FreeRTOS tutorial book, reference          *
  15:../Generated_Code/tasks.c ****      *    manual, or both from: http://www.FreeRTOS.org/Documentation        *
  16:../Generated_Code/tasks.c ****      *                                                                       *
  17:../Generated_Code/tasks.c ****      *    Thank you!                                                         *
  18:../Generated_Code/tasks.c ****      *                                                                       *
  19:../Generated_Code/tasks.c ****     ***************************************************************************
  20:../Generated_Code/tasks.c **** 
  21:../Generated_Code/tasks.c ****     This file is part of the FreeRTOS distribution.
  22:../Generated_Code/tasks.c **** 
  23:../Generated_Code/tasks.c ****     FreeRTOS is free software; you can redistribute it and/or modify it under
  24:../Generated_Code/tasks.c ****     the terms of the GNU General Public License (version 2) as published by the
  25:../Generated_Code/tasks.c ****     Free Software Foundation >>!AND MODIFIED BY!<< the FreeRTOS exception.
  26:../Generated_Code/tasks.c **** 
  27:../Generated_Code/tasks.c ****     >>! NOTE: The modification to the GPL is included to allow you to distribute
  28:../Generated_Code/tasks.c ****     >>! a combined work that includes FreeRTOS without being obliged to provide
  29:../Generated_Code/tasks.c ****     >>! the source code for proprietary components outside of the FreeRTOS
  30:../Generated_Code/tasks.c ****     >>! kernel.
  31:../Generated_Code/tasks.c **** 
  32:../Generated_Code/tasks.c ****     FreeRTOS is distributed in the hope that it will be useful, but WITHOUT ANY
  33:../Generated_Code/tasks.c ****     WARRANTY; without even the implied warranty of MERCHANTABILITY or FITNESS
  34:../Generated_Code/tasks.c ****     FOR A PARTICULAR PURPOSE.  Full license text is available from the following
  35:../Generated_Code/tasks.c ****     link: http://www.freertos.org/a00114.html
  36:../Generated_Code/tasks.c **** 
  37:../Generated_Code/tasks.c ****     1 tab == 4 spaces!
  38:../Generated_Code/tasks.c **** 
  39:../Generated_Code/tasks.c ****     ***************************************************************************
  40:../Generated_Code/tasks.c ****      *                                                                       *
  41:../Generated_Code/tasks.c ****      *    Having a problem?  Start by reading the FAQ "My application does   *
  42:../Generated_Code/tasks.c ****      *    not run, what could be wrong?"                                     *
  43:../Generated_Code/tasks.c ****      *                                                                       *
  44:../Generated_Code/tasks.c ****      *    http://www.FreeRTOS.org/FAQHelp.html                               *
  45:../Generated_Code/tasks.c ****      *                                                                       *
  46:../Generated_Code/tasks.c ****     ***************************************************************************
  47:../Generated_Code/tasks.c **** 
  48:../Generated_Code/tasks.c ****     http://www.FreeRTOS.org - Documentation, books, training, latest versions,
  49:../Generated_Code/tasks.c ****     license and Real Time Engineers Ltd. contact details.
  50:../Generated_Code/tasks.c **** 
  51:../Generated_Code/tasks.c ****     http://www.FreeRTOS.org/plus - A selection of FreeRTOS ecosystem products,
  52:../Generated_Code/tasks.c ****     including FreeRTOS+Trace - an indispensable productivity tool, a DOS
  53:../Generated_Code/tasks.c ****     compatible FAT file system, and our tiny thread aware UDP/IP stack.
  54:../Generated_Code/tasks.c **** 
  55:../Generated_Code/tasks.c ****     http://www.OpenRTOS.com - Real Time Engineers ltd license FreeRTOS to High
  56:../Generated_Code/tasks.c ****     Integrity Systems to sell under the OpenRTOS brand.  Low cost OpenRTOS
  57:../Generated_Code/tasks.c ****     licenses offer ticketed support, indemnification and middleware.
  58:../Generated_Code/tasks.c **** 
  59:../Generated_Code/tasks.c ****     http://www.SafeRTOS.com - High Integrity Systems also provide a safety
  60:../Generated_Code/tasks.c ****     engineered and independently SIL3 certified version for use in safety and
  61:../Generated_Code/tasks.c ****     mission critical applications that require provable dependability.
  62:../Generated_Code/tasks.c **** 
  63:../Generated_Code/tasks.c ****     1 tab == 4 spaces!
  64:../Generated_Code/tasks.c **** */
  65:../Generated_Code/tasks.c **** 
  66:../Generated_Code/tasks.c **** /* Standard includes. */
  67:../Generated_Code/tasks.c **** #include <stdlib.h>
  68:../Generated_Code/tasks.c **** #include <string.h>
  69:../Generated_Code/tasks.c **** 
  70:../Generated_Code/tasks.c **** /* Defining MPU_WRAPPERS_INCLUDED_FROM_API_FILE prevents task.h from redefining
  71:../Generated_Code/tasks.c **** all the API functions to use the MPU wrappers.  That should only be done when
  72:../Generated_Code/tasks.c **** task.h is included from an application file. */
  73:../Generated_Code/tasks.c **** #define MPU_WRAPPERS_INCLUDED_FROM_API_FILE
  74:../Generated_Code/tasks.c **** 
  75:../Generated_Code/tasks.c **** /* FreeRTOS includes. */
  76:../Generated_Code/tasks.c **** #include "FreeRTOS.h"
  77:../Generated_Code/tasks.c **** #include "task.h"
  78:../Generated_Code/tasks.c **** #include "timers.h"
  79:../Generated_Code/tasks.c **** #include "StackMacros.h"
  80:../Generated_Code/tasks.c **** 
  81:../Generated_Code/tasks.c **** #include "Events.h"
  82:../Generated_Code/tasks.c **** #if ( ( configUSE_TRACE_FACILITY == 1 ) && ( configUSE_STATS_FORMATTING_FUNCTIONS == 1 ) )
  83:../Generated_Code/tasks.c **** #include "UTIL0.h" /* interface to utility because used for safe string routines */ /* << EST */
  84:../Generated_Code/tasks.c **** #endif
  85:../Generated_Code/tasks.c **** 
  86:../Generated_Code/tasks.c **** #if (configCOMPILER == configCOMPILER_ARM_IAR) /* << EST: suppress warnings for IAR */
  87:../Generated_Code/tasks.c **** #pragma diag_suppress=pa082 /* Warning[Pa082]: undefined behavior: the order of volatile accesses i
  88:../Generated_Code/tasks.c **** #endif
  89:../Generated_Code/tasks.c **** 
  90:../Generated_Code/tasks.c **** /* Lint e961 and e750 are suppressed as a MISRA exception justified because the
  91:../Generated_Code/tasks.c **** MPU ports require MPU_WRAPPERS_INCLUDED_FROM_API_FILE to be defined for the
  92:../Generated_Code/tasks.c **** header files above, but not in this file, in order to generate the correct
  93:../Generated_Code/tasks.c **** privileged Vs unprivileged linkage and placement. */
  94:../Generated_Code/tasks.c **** #undef MPU_WRAPPERS_INCLUDED_FROM_API_FILE /*lint !e961 !e750. */
  95:../Generated_Code/tasks.c **** 
  96:../Generated_Code/tasks.c **** #if ( configUSE_STATS_FORMATTING_FUNCTIONS == 1 )
  97:../Generated_Code/tasks.c ****         /* At the bottom of this file are two optional functions that can be used
  98:../Generated_Code/tasks.c ****         to generate human readable text from the raw data generated by the
  99:../Generated_Code/tasks.c ****         uxTaskGetSystemState() function.  Note the formatting functions are provided
 100:../Generated_Code/tasks.c ****         for convenience only, and are NOT considered part of the kernel. */
 101:../Generated_Code/tasks.c ****         #include <stdio.h>
 102:../Generated_Code/tasks.c **** #endif /* configUSE_STATS_FORMATTING_FUNCTIONS == 1 ) */
 103:../Generated_Code/tasks.c **** 
 104:../Generated_Code/tasks.c **** /* Sanity check the configuration. */
 105:../Generated_Code/tasks.c **** #if configUSE_TICKLESS_IDLE != 0
 106:../Generated_Code/tasks.c ****         #if INCLUDE_vTaskSuspend != 1
 107:../Generated_Code/tasks.c ****                 #error INCLUDE_vTaskSuspend must be set to 1 if configUSE_TICKLESS_IDLE is not set 
 108:../Generated_Code/tasks.c ****         #endif /* INCLUDE_vTaskSuspend */
 109:../Generated_Code/tasks.c **** #endif /* configUSE_TICKLESS_IDLE */
 110:../Generated_Code/tasks.c **** 
 111:../Generated_Code/tasks.c **** /*
 112:../Generated_Code/tasks.c ****  * Defines the size, in words, of the stack allocated to the idle task.
 113:../Generated_Code/tasks.c ****  */
 114:../Generated_Code/tasks.c **** #define tskIDLE_STACK_SIZE      configMINIMAL_STACK_SIZE
 115:../Generated_Code/tasks.c **** 
 116:../Generated_Code/tasks.c **** #if( configUSE_PREEMPTION == 0 )
 117:../Generated_Code/tasks.c ****         /* If the cooperative scheduler is being used then a yield should not be
 118:../Generated_Code/tasks.c ****         performed just because a higher priority task has been woken. */
 119:../Generated_Code/tasks.c ****         #define taskYIELD_IF_USING_PREEMPTION()
 120:../Generated_Code/tasks.c **** #else
 121:../Generated_Code/tasks.c ****         #define taskYIELD_IF_USING_PREEMPTION() portYIELD_WITHIN_API()
 122:../Generated_Code/tasks.c **** #endif
 123:../Generated_Code/tasks.c **** 
 124:../Generated_Code/tasks.c **** /*
 125:../Generated_Code/tasks.c ****  * Task control block.  A task control block (TCB) is allocated for each task,
 126:../Generated_Code/tasks.c ****  * and stores task state information, including a pointer to the task's context
 127:../Generated_Code/tasks.c ****  * (the task's run time environment, including register values)
 128:../Generated_Code/tasks.c ****  */
 129:../Generated_Code/tasks.c **** typedef struct tskTaskControlBlock
 130:../Generated_Code/tasks.c **** {
 131:../Generated_Code/tasks.c ****         volatile StackType_t    *pxTopOfStack;  /*< Points to the location of the last item placed 
 132:../Generated_Code/tasks.c **** 
 133:../Generated_Code/tasks.c ****         #if ( portUSING_MPU_WRAPPERS == 1 )
 134:../Generated_Code/tasks.c ****                 xMPU_SETTINGS   xMPUSettings;           /*< The MPU settings are defined as part of
 135:../Generated_Code/tasks.c ****         #endif
 136:../Generated_Code/tasks.c **** 
 137:../Generated_Code/tasks.c ****         ListItem_t                      xGenericListItem;       /*< The list that the state list it
 138:../Generated_Code/tasks.c ****         ListItem_t                      xEventListItem;         /*< Used to reference a task from a
 139:../Generated_Code/tasks.c ****         UBaseType_t                     uxPriority;                     /*< The priority of the tas
 140:../Generated_Code/tasks.c ****         StackType_t                     *pxStack;                       /*< Points to the start of 
 141:../Generated_Code/tasks.c ****         char                            pcTaskName[ configMAX_TASK_NAME_LEN ];/*< Descriptive name 
 142:../Generated_Code/tasks.c **** 
 143:../Generated_Code/tasks.c ****         #if ( portSTACK_GROWTH > 0 )
 144:../Generated_Code/tasks.c ****                 StackType_t             *pxEndOfStack;          /*< Points to the end of the stack 
 145:../Generated_Code/tasks.c ****         #endif
 146:../Generated_Code/tasks.c **** 
 147:../Generated_Code/tasks.c ****         #if ( portCRITICAL_NESTING_IN_TCB == 1 )
 148:../Generated_Code/tasks.c ****                 UBaseType_t     uxCriticalNesting;      /*< Holds the critical section nesting dept
 149:../Generated_Code/tasks.c ****         #endif
 150:../Generated_Code/tasks.c **** 
 151:../Generated_Code/tasks.c ****         #if ( configUSE_TRACE_FACILITY == 1 )
 152:../Generated_Code/tasks.c ****                 UBaseType_t             uxTCBNumber;            /*< Stores a number that increments
 153:../Generated_Code/tasks.c ****                 UBaseType_t     uxTaskNumber;           /*< Stores a number specifically for use by
 154:../Generated_Code/tasks.c ****         #endif
 155:../Generated_Code/tasks.c **** 
 156:../Generated_Code/tasks.c ****         #if ( configUSE_MUTEXES == 1 )
 157:../Generated_Code/tasks.c ****                 UBaseType_t     uxBasePriority;         /*< The priority last assigned to the task 
 158:../Generated_Code/tasks.c ****         #endif
 159:../Generated_Code/tasks.c **** 
 160:../Generated_Code/tasks.c ****         #if ( configUSE_APPLICATION_TASK_TAG == 1 )
 161:../Generated_Code/tasks.c ****                 TaskHookFunction_t pxTaskTag;
 162:../Generated_Code/tasks.c ****         #endif
 163:../Generated_Code/tasks.c **** 
 164:../Generated_Code/tasks.c ****         #if ( configGENERATE_RUN_TIME_STATS == 1 )
 165:../Generated_Code/tasks.c ****                 uint32_t                ulRunTimeCounter;       /*< Stores the amount of time the t
 166:../Generated_Code/tasks.c ****         #endif
 167:../Generated_Code/tasks.c **** 
 168:../Generated_Code/tasks.c ****         #if ( configUSE_NEWLIB_REENTRANT == 1 )
 169:../Generated_Code/tasks.c ****                 /* Allocate a Newlib reent structure that is specific to this task.
 170:../Generated_Code/tasks.c ****                 Note Newlib support has been included by popular demand, but is not
 171:../Generated_Code/tasks.c ****                 used by the FreeRTOS maintainers themselves.  FreeRTOS is not
 172:../Generated_Code/tasks.c ****                 responsible for resulting newlib operation.  User must be familiar with
 173:../Generated_Code/tasks.c ****                 newlib and must provide system-wide implementations of the necessary
 174:../Generated_Code/tasks.c ****                 stubs. Be warned that (at the time of writing) the current newlib design
 175:../Generated_Code/tasks.c ****                 implements a system-wide malloc() that must be provided with locks. */
 176:../Generated_Code/tasks.c ****                 struct  _reent xNewLib_reent;
 177:../Generated_Code/tasks.c ****         #endif
 178:../Generated_Code/tasks.c **** 
 179:../Generated_Code/tasks.c **** } tskTCB;
 180:../Generated_Code/tasks.c **** 
 181:../Generated_Code/tasks.c **** /* The old tskTCB name is maintained above then typedefed to the new TCB_t name
 182:../Generated_Code/tasks.c **** below to enable the use of older kernel aware debuggers. */
 183:../Generated_Code/tasks.c **** typedef tskTCB TCB_t;
 184:../Generated_Code/tasks.c **** 
 185:../Generated_Code/tasks.c **** /*
 186:../Generated_Code/tasks.c ****  * Some kernel aware debuggers require the data the debugger needs access to to
 187:../Generated_Code/tasks.c ****  * be global, rather than file scope.
 188:../Generated_Code/tasks.c ****  */
 189:../Generated_Code/tasks.c **** #ifdef portREMOVE_STATIC_QUALIFIER
 190:../Generated_Code/tasks.c ****         #define static
 191:../Generated_Code/tasks.c **** #endif
 192:../Generated_Code/tasks.c **** 
 193:../Generated_Code/tasks.c **** /*lint -e956 A manual analysis and inspection has been used to determine which
 194:../Generated_Code/tasks.c **** static variables must be declared volatile. */
 195:../Generated_Code/tasks.c **** 
 196:../Generated_Code/tasks.c **** PRIVILEGED_DATA TCB_t * volatile pxCurrentTCB = NULL;
 197:../Generated_Code/tasks.c **** 
 198:../Generated_Code/tasks.c **** /* Lists for ready and blocked tasks. --------------------*/
 199:../Generated_Code/tasks.c **** PRIVILEGED_DATA static List_t pxReadyTasksLists[ configMAX_PRIORITIES ];/*< Prioritised ready tasks
 200:../Generated_Code/tasks.c **** PRIVILEGED_DATA static List_t xDelayedTaskList1;                                                /*<
 201:../Generated_Code/tasks.c **** PRIVILEGED_DATA static List_t xDelayedTaskList2;                                                /*<
 202:../Generated_Code/tasks.c **** PRIVILEGED_DATA static List_t * volatile pxDelayedTaskList;                             /*< Points 
 203:../Generated_Code/tasks.c **** PRIVILEGED_DATA static List_t * volatile pxOverflowDelayedTaskList;             /*< Points to the d
 204:../Generated_Code/tasks.c **** PRIVILEGED_DATA static List_t xPendingReadyList;                                                /*<
 205:../Generated_Code/tasks.c **** 
 206:../Generated_Code/tasks.c **** #if ( INCLUDE_vTaskDelete == 1 )
 207:../Generated_Code/tasks.c **** 
 208:../Generated_Code/tasks.c ****         PRIVILEGED_DATA static List_t xTasksWaitingTermination;                         /*< Tasks t
 209:../Generated_Code/tasks.c ****         PRIVILEGED_DATA static volatile UBaseType_t uxTasksDeleted = ( UBaseType_t ) 0U;
 210:../Generated_Code/tasks.c **** 
 211:../Generated_Code/tasks.c **** #endif
 212:../Generated_Code/tasks.c **** 
 213:../Generated_Code/tasks.c **** #if ( INCLUDE_vTaskSuspend == 1 )
 214:../Generated_Code/tasks.c **** 
 215:../Generated_Code/tasks.c ****         PRIVILEGED_DATA static List_t xSuspendedTaskList;                                       /*<
 216:../Generated_Code/tasks.c **** 
 217:../Generated_Code/tasks.c **** #endif
 218:../Generated_Code/tasks.c **** 
 219:../Generated_Code/tasks.c **** #if ( INCLUDE_xTaskGetIdleTaskHandle == 1 )
 220:../Generated_Code/tasks.c **** 
 221:../Generated_Code/tasks.c ****         PRIVILEGED_DATA static TaskHandle_t xIdleTaskHandle = NULL;                     /*< Holds t
 222:../Generated_Code/tasks.c **** 
 223:../Generated_Code/tasks.c **** #endif
 224:../Generated_Code/tasks.c **** 
 225:../Generated_Code/tasks.c **** /* Other file private variables. --------------------------------*/
 226:../Generated_Code/tasks.c **** PRIVILEGED_DATA static volatile UBaseType_t uxCurrentNumberOfTasks      = ( UBaseType_t ) 0U;
 227:../Generated_Code/tasks.c **** PRIVILEGED_DATA static volatile TickType_t xTickCount                           = ( TickType_t ) 0U
 228:../Generated_Code/tasks.c **** PRIVILEGED_DATA static volatile UBaseType_t uxTopReadyPriority          = tskIDLE_PRIORITY;
 229:../Generated_Code/tasks.c **** PRIVILEGED_DATA static volatile BaseType_t xSchedulerRunning            = pdFALSE;
 230:../Generated_Code/tasks.c **** PRIVILEGED_DATA static volatile UBaseType_t uxPendedTicks                       = ( UBaseType_t ) 0
 231:../Generated_Code/tasks.c **** PRIVILEGED_DATA static volatile BaseType_t xYieldPending                        = pdFALSE;
 232:../Generated_Code/tasks.c **** PRIVILEGED_DATA static volatile BaseType_t xNumOfOverflows                      = ( BaseType_t ) 0;
 233:../Generated_Code/tasks.c **** PRIVILEGED_DATA static UBaseType_t uxTaskNumber                                         = ( UBaseTy
 234:../Generated_Code/tasks.c **** PRIVILEGED_DATA static volatile TickType_t xNextTaskUnblockTime         = portMAX_DELAY;
 235:../Generated_Code/tasks.c **** 
 236:../Generated_Code/tasks.c **** /* Context switches are held pending while the scheduler is suspended.  Also,
 237:../Generated_Code/tasks.c **** interrupts must not manipulate the xStateListItem of a TCB, or any of the
 238:../Generated_Code/tasks.c **** lists the xStateListItem can be referenced from, if the scheduler is suspended.
 239:../Generated_Code/tasks.c **** If an interrupt needs to unblock a task while the scheduler is suspended then it
 240:../Generated_Code/tasks.c **** moves the task's event list item into the xPendingReadyList, ready for the
 241:../Generated_Code/tasks.c **** kernel to move the task from the pending ready list into the real ready list
 242:../Generated_Code/tasks.c **** when the scheduler is unsuspended.  The pending ready list itself can only be
 243:../Generated_Code/tasks.c **** accessed from a critical section. */
 244:../Generated_Code/tasks.c **** PRIVILEGED_DATA static volatile UBaseType_t uxSchedulerSuspended        = ( UBaseType_t ) pdFALSE;
 245:../Generated_Code/tasks.c **** 
 246:../Generated_Code/tasks.c **** #if ( configGENERATE_RUN_TIME_STATS == 1 )
 247:../Generated_Code/tasks.c **** 
 248:../Generated_Code/tasks.c ****         PRIVILEGED_DATA static uint32_t ulTaskSwitchedInTime = 0UL;     /*< Holds the value of a ti
 249:../Generated_Code/tasks.c ****         PRIVILEGED_DATA static uint32_t ulTotalRunTime = 0UL;           /*< Holds the total amount 
 250:../Generated_Code/tasks.c **** 
 251:../Generated_Code/tasks.c **** #endif
 252:../Generated_Code/tasks.c **** 
 253:../Generated_Code/tasks.c **** /*lint +e956 */
 254:../Generated_Code/tasks.c **** 
 255:../Generated_Code/tasks.c **** /* Debugging and trace facilities private variables and macros. ------------*/
 256:../Generated_Code/tasks.c **** 
 257:../Generated_Code/tasks.c **** /*
 258:../Generated_Code/tasks.c ****  * The value used to fill the stack of a task when the task is created.  This
 259:../Generated_Code/tasks.c ****  * is used purely for checking the high water mark for tasks.
 260:../Generated_Code/tasks.c ****  */
 261:../Generated_Code/tasks.c **** #define tskSTACK_FILL_BYTE      ( 0xa5U )
 262:../Generated_Code/tasks.c **** 
 263:../Generated_Code/tasks.c **** /*
 264:../Generated_Code/tasks.c ****  * Macros used by vListTask to indicate which state a task is in.
 265:../Generated_Code/tasks.c ****  */
 266:../Generated_Code/tasks.c **** #define tskBLOCKED_CHAR         ( 'B' )
 267:../Generated_Code/tasks.c **** #define tskREADY_CHAR           ( 'R' )
 268:../Generated_Code/tasks.c **** #define tskDELETED_CHAR         ( 'D' )
 269:../Generated_Code/tasks.c **** #define tskSUSPENDED_CHAR       ( 'S' )
 270:../Generated_Code/tasks.c **** 
 271:../Generated_Code/tasks.c **** /*-----------------------------------------------------------*/
 272:../Generated_Code/tasks.c **** 
 273:../Generated_Code/tasks.c **** #if ( configUSE_PORT_OPTIMISED_TASK_SELECTION == 0 )
 274:../Generated_Code/tasks.c **** 
 275:../Generated_Code/tasks.c ****         /* If configUSE_PORT_OPTIMISED_TASK_SELECTION is 0 then task selection is
 276:../Generated_Code/tasks.c ****         performed in a generic way that is not optimised to any particular
 277:../Generated_Code/tasks.c ****         microcontroller architecture. */
 278:../Generated_Code/tasks.c **** 
 279:../Generated_Code/tasks.c ****         /* uxTopReadyPriority holds the priority of the highest priority ready
 280:../Generated_Code/tasks.c ****         state task. */
 281:../Generated_Code/tasks.c ****         #define taskRECORD_READY_PRIORITY( uxPriority )                                            
 282:../Generated_Code/tasks.c ****         {                                                                                          
 283:../Generated_Code/tasks.c ****                 if( ( uxPriority ) > uxTopReadyPriority )                                          
 284:../Generated_Code/tasks.c ****                 {                                                                                  
 285:../Generated_Code/tasks.c ****                         uxTopReadyPriority = ( uxPriority );                                       
 286:../Generated_Code/tasks.c ****                 }                                                                                  
 287:../Generated_Code/tasks.c ****         } /* taskRECORD_READY_PRIORITY */
 288:../Generated_Code/tasks.c **** 
 289:../Generated_Code/tasks.c ****         /*-----------------------------------------------------------*/
 290:../Generated_Code/tasks.c **** 
 291:../Generated_Code/tasks.c ****         #define taskSELECT_HIGHEST_PRIORITY_TASK()                                                 
 292:../Generated_Code/tasks.c ****         {                                                                                          
 293:../Generated_Code/tasks.c ****                 /* Find the highest priority queue that contains ready tasks. */                   
 294:../Generated_Code/tasks.c ****                 while( listLIST_IS_EMPTY( &( pxReadyTasksLists[ uxTopReadyPriority ] ) ) )         
 295:../Generated_Code/tasks.c ****                 {                                                                                  
 296:../Generated_Code/tasks.c ****                         configASSERT( uxTopReadyPriority );                                        
 297:../Generated_Code/tasks.c ****                         --uxTopReadyPriority;                                                      
 298:../Generated_Code/tasks.c ****                 }                                                                                  
 299:../Generated_Code/tasks.c ****                                                                                                    
 300:../Generated_Code/tasks.c ****                 /* listGET_OWNER_OF_NEXT_ENTRY indexes through the list, so the tasks of           
 301:../Generated_Code/tasks.c ****                 the     same priority get an equal share of the processor time. */                 
 302:../Generated_Code/tasks.c ****                 listGET_OWNER_OF_NEXT_ENTRY( pxCurrentTCB, &( pxReadyTasksLists[ uxTopReadyPriority
 303:../Generated_Code/tasks.c ****         } /* taskSELECT_HIGHEST_PRIORITY_TASK */
 304:../Generated_Code/tasks.c **** 
 305:../Generated_Code/tasks.c ****         /*-----------------------------------------------------------*/
 306:../Generated_Code/tasks.c **** 
 307:../Generated_Code/tasks.c ****         /* Define away taskRESET_READY_PRIORITY() and portRESET_READY_PRIORITY() as
 308:../Generated_Code/tasks.c ****         they are only required when a port optimised method of task selection is
 309:../Generated_Code/tasks.c ****         being used. */
 310:../Generated_Code/tasks.c ****         #define taskRESET_READY_PRIORITY( uxPriority )
 311:../Generated_Code/tasks.c ****         #define portRESET_READY_PRIORITY( uxPriority, uxTopReadyPriority )
 312:../Generated_Code/tasks.c **** 
 313:../Generated_Code/tasks.c **** #else /* configUSE_PORT_OPTIMISED_TASK_SELECTION */
 314:../Generated_Code/tasks.c **** 
 315:../Generated_Code/tasks.c ****         /* If configUSE_PORT_OPTIMISED_TASK_SELECTION is 1 then task selection is
 316:../Generated_Code/tasks.c ****         performed in a way that is tailored to the particular microcontroller
 317:../Generated_Code/tasks.c ****         architecture being used. */
 318:../Generated_Code/tasks.c **** 
 319:../Generated_Code/tasks.c ****         /* A port optimised version is provided.  Call the port defined macros. */
 320:../Generated_Code/tasks.c ****         #define taskRECORD_READY_PRIORITY( uxPriority ) portRECORD_READY_PRIORITY( uxPriority, uxTo
 321:../Generated_Code/tasks.c **** 
 322:../Generated_Code/tasks.c ****         /*-----------------------------------------------------------*/
 323:../Generated_Code/tasks.c **** 
 324:../Generated_Code/tasks.c ****         #define taskSELECT_HIGHEST_PRIORITY_TASK()                                                 
 325:../Generated_Code/tasks.c ****         {                                                                                          
 326:../Generated_Code/tasks.c ****         UBaseType_t uxTopPriority;                                                                 
 327:../Generated_Code/tasks.c ****                                                                                                    
 328:../Generated_Code/tasks.c ****                 /* Find the highest priority queue that contains ready tasks. */                   
 329:../Generated_Code/tasks.c ****                 portGET_HIGHEST_PRIORITY( uxTopPriority, uxTopReadyPriority );                     
 330:../Generated_Code/tasks.c ****                 configASSERT( listCURRENT_LIST_LENGTH( &( pxReadyTasksLists[ uxTopPriority ] ) ) > 
 331:../Generated_Code/tasks.c ****                 listGET_OWNER_OF_NEXT_ENTRY( pxCurrentTCB, &( pxReadyTasksLists[ uxTopPriority ] ) 
 332:../Generated_Code/tasks.c ****         } /* taskSELECT_HIGHEST_PRIORITY_TASK() */
 333:../Generated_Code/tasks.c **** 
 334:../Generated_Code/tasks.c ****         /*-----------------------------------------------------------*/
 335:../Generated_Code/tasks.c **** 
 336:../Generated_Code/tasks.c ****         /* A port optimised version is provided, call it only if the TCB being reset
 337:../Generated_Code/tasks.c ****         is being referenced from a ready list.  If it is referenced from a delayed
 338:../Generated_Code/tasks.c ****         or suspended list then it won't be in a ready list. */
 339:../Generated_Code/tasks.c ****         #define taskRESET_READY_PRIORITY( uxPriority )                                             
 340:../Generated_Code/tasks.c ****         {                                                                                          
 341:../Generated_Code/tasks.c ****                 if( listCURRENT_LIST_LENGTH( &( pxReadyTasksLists[ ( uxPriority ) ] ) ) == 0 )     
 342:../Generated_Code/tasks.c ****                 {                                                                                  
 343:../Generated_Code/tasks.c ****                         portRESET_READY_PRIORITY( ( uxPriority ), ( uxTopReadyPriority ) );        
 344:../Generated_Code/tasks.c ****                 }                                                                                  
 345:../Generated_Code/tasks.c ****         }
 346:../Generated_Code/tasks.c **** 
 347:../Generated_Code/tasks.c **** #endif /* configUSE_PORT_OPTIMISED_TASK_SELECTION */
 348:../Generated_Code/tasks.c **** 
 349:../Generated_Code/tasks.c **** /*-----------------------------------------------------------*/
 350:../Generated_Code/tasks.c **** 
 351:../Generated_Code/tasks.c **** /* pxDelayedTaskList and pxOverflowDelayedTaskList are switched when the tick
 352:../Generated_Code/tasks.c **** count overflows. */
 353:../Generated_Code/tasks.c **** #define taskSWITCH_DELAYED_LISTS()                                                                 
 354:../Generated_Code/tasks.c **** {                                                                                                  
 355:../Generated_Code/tasks.c ****         List_t *pxTemp;                                                                            
 356:../Generated_Code/tasks.c ****                                                                                                    
 357:../Generated_Code/tasks.c ****         /* The delayed tasks list should be empty when the lists are switched. */                  
 358:../Generated_Code/tasks.c ****         configASSERT( ( listLIST_IS_EMPTY( pxDelayedTaskList ) ) );                                
 359:../Generated_Code/tasks.c ****                                                                                                    
 360:../Generated_Code/tasks.c ****         pxTemp = pxDelayedTaskList;                                                                
 361:../Generated_Code/tasks.c ****         pxDelayedTaskList = pxOverflowDelayedTaskList;                                             
 362:../Generated_Code/tasks.c ****         pxOverflowDelayedTaskList = pxTemp;                                                        
 363:../Generated_Code/tasks.c ****         xNumOfOverflows++;                                                                         
 364:../Generated_Code/tasks.c ****         prvResetNextTaskUnblockTime();                                                             
 365:../Generated_Code/tasks.c **** }
 366:../Generated_Code/tasks.c **** 
 367:../Generated_Code/tasks.c **** /*-----------------------------------------------------------*/
 368:../Generated_Code/tasks.c **** 
 369:../Generated_Code/tasks.c **** /*
 370:../Generated_Code/tasks.c ****  * Place the task represented by pxTCB into the appropriate ready list for
 371:../Generated_Code/tasks.c ****  * the task.  It is inserted at the end of the list.
 372:../Generated_Code/tasks.c ****  */
 373:../Generated_Code/tasks.c **** #define prvAddTaskToReadyList( pxTCB )                                                             
 374:../Generated_Code/tasks.c ****         traceMOVED_TASK_TO_READY_STATE( pxTCB )                                                    
 375:../Generated_Code/tasks.c ****         taskRECORD_READY_PRIORITY( ( pxTCB )->uxPriority );                                        
 376:../Generated_Code/tasks.c ****         vListInsertEnd( &( pxReadyTasksLists[ ( pxTCB )->uxPriority ] ), &( ( pxTCB )->xGenericList
 377:../Generated_Code/tasks.c **** /*-----------------------------------------------------------*/
 378:../Generated_Code/tasks.c **** 
 379:../Generated_Code/tasks.c **** /*
 380:../Generated_Code/tasks.c ****  * Several functions take an TaskHandle_t parameter that can optionally be NULL,
 381:../Generated_Code/tasks.c ****  * where NULL is used to indicate that the handle of the currently executing
 382:../Generated_Code/tasks.c ****  * task should be used in place of the parameter.  This macro simply checks to
 383:../Generated_Code/tasks.c ****  * see if the parameter is NULL and returns a pointer to the appropriate TCB.
 384:../Generated_Code/tasks.c ****  */
 385:../Generated_Code/tasks.c **** #define prvGetTCBFromHandle( pxHandle ) ( ( ( pxHandle ) == NULL ) ? ( TCB_t * ) pxCurrentTCB : ( T
 386:../Generated_Code/tasks.c **** 
 387:../Generated_Code/tasks.c **** /* The item value of the event list item is normally used to hold the priority
 388:../Generated_Code/tasks.c **** of the task to which it belongs (coded to allow it to be held in reverse
 389:../Generated_Code/tasks.c **** priority order).  However, it is occasionally borrowed for other purposes.  It
 390:../Generated_Code/tasks.c **** is important its value is not updated due to a task priority change while it is
 391:../Generated_Code/tasks.c **** being used for another purpose.  The following bit definition is used to inform
 392:../Generated_Code/tasks.c **** the scheduler that the value should not be changed - in which case it is the
 393:../Generated_Code/tasks.c **** responsibility of whichever module is using the value to ensure it gets set back
 394:../Generated_Code/tasks.c **** to its original value when it is released. */
 395:../Generated_Code/tasks.c **** #if configUSE_16_BIT_TICKS == 1
 396:../Generated_Code/tasks.c ****         #define taskEVENT_LIST_ITEM_VALUE_IN_USE        0x8000U
 397:../Generated_Code/tasks.c **** #else
 398:../Generated_Code/tasks.c ****         #define taskEVENT_LIST_ITEM_VALUE_IN_USE        0x80000000UL
 399:../Generated_Code/tasks.c **** #endif
 400:../Generated_Code/tasks.c **** 
 401:../Generated_Code/tasks.c **** /* Callback function prototypes. --------------------------*/
 402:../Generated_Code/tasks.c **** #if configCHECK_FOR_STACK_OVERFLOW > 0
 403:../Generated_Code/tasks.c ****         extern void vApplicationStackOverflowHook( TaskHandle_t xTask, char *pcTaskName );
 404:../Generated_Code/tasks.c **** #endif
 405:../Generated_Code/tasks.c **** 
 406:../Generated_Code/tasks.c **** #if configUSE_TICK_HOOK > 0
 407:../Generated_Code/tasks.c ****         extern void vApplicationTickHook( void );
 408:../Generated_Code/tasks.c **** #endif
 409:../Generated_Code/tasks.c **** 
 410:../Generated_Code/tasks.c **** /* File private functions. --------------------------------*/
 411:../Generated_Code/tasks.c **** 
 412:../Generated_Code/tasks.c **** /*
 413:../Generated_Code/tasks.c ****  * Utility to ready a TCB for a given task.  Mainly just copies the parameters
 414:../Generated_Code/tasks.c ****  * into the TCB structure.
 415:../Generated_Code/tasks.c ****  */
 416:../Generated_Code/tasks.c **** static void prvInitialiseTCBVariables( TCB_t * const pxTCB, const char * const pcName, UBaseType_t 
 417:../Generated_Code/tasks.c **** 
 418:../Generated_Code/tasks.c **** /**
 419:../Generated_Code/tasks.c ****  * Utility task that simply returns pdTRUE if the task referenced by xTask is
 420:../Generated_Code/tasks.c ****  * currently in the Suspended state, or pdFALSE if the task referenced by xTask
 421:../Generated_Code/tasks.c ****  * is in any other state.
 422:../Generated_Code/tasks.c ****  */
 423:../Generated_Code/tasks.c **** static BaseType_t prvTaskIsTaskSuspended( const TaskHandle_t xTask ) PRIVILEGED_FUNCTION;
 424:../Generated_Code/tasks.c **** 
 425:../Generated_Code/tasks.c **** /*
 426:../Generated_Code/tasks.c ****  * Utility to ready all the lists used by the scheduler.  This is called
 427:../Generated_Code/tasks.c ****  * automatically upon the creation of the first task.
 428:../Generated_Code/tasks.c ****  */
 429:../Generated_Code/tasks.c **** static void prvInitialiseTaskLists( void ) PRIVILEGED_FUNCTION;
 430:../Generated_Code/tasks.c **** 
 431:../Generated_Code/tasks.c **** /*
 432:../Generated_Code/tasks.c ****  * The idle task, which as all tasks is implemented as a never ending loop.
 433:../Generated_Code/tasks.c ****  * The idle task is automatically created and added to the ready lists upon
 434:../Generated_Code/tasks.c ****  * creation of the first user task.
 435:../Generated_Code/tasks.c ****  *
 436:../Generated_Code/tasks.c ****  * The portTASK_FUNCTION_PROTO() macro is used to allow port/compiler specific
 437:../Generated_Code/tasks.c ****  * language extensions.  The equivalent prototype for this function is:
 438:../Generated_Code/tasks.c ****  *
 439:../Generated_Code/tasks.c ****  * void prvIdleTask( void *pvParameters );
 440:../Generated_Code/tasks.c ****  *
 441:../Generated_Code/tasks.c ****  */
 442:../Generated_Code/tasks.c **** static portTASK_FUNCTION_PROTO( prvIdleTask, pvParameters );
 443:../Generated_Code/tasks.c **** 
 444:../Generated_Code/tasks.c **** /*
 445:../Generated_Code/tasks.c ****  * Utility to free all memory allocated by the scheduler to hold a TCB,
 446:../Generated_Code/tasks.c ****  * including the stack pointed to by the TCB.
 447:../Generated_Code/tasks.c ****  *
 448:../Generated_Code/tasks.c ****  * This does not free memory allocated by the task itself (i.e. memory
 449:../Generated_Code/tasks.c ****  * allocated by calls to pvPortMalloc from within the tasks application code).
 450:../Generated_Code/tasks.c ****  */
 451:../Generated_Code/tasks.c **** #if ( INCLUDE_vTaskDelete == 1 )
 452:../Generated_Code/tasks.c **** 
 453:../Generated_Code/tasks.c ****         static void prvDeleteTCB( TCB_t *pxTCB ) PRIVILEGED_FUNCTION;
 454:../Generated_Code/tasks.c **** 
 455:../Generated_Code/tasks.c **** #endif
 456:../Generated_Code/tasks.c **** 
 457:../Generated_Code/tasks.c **** /*
 458:../Generated_Code/tasks.c ****  * Used only by the idle task.  This checks to see if anything has been placed
 459:../Generated_Code/tasks.c ****  * in the list of tasks waiting to be deleted.  If so the task is cleaned up
 460:../Generated_Code/tasks.c ****  * and its TCB deleted.
 461:../Generated_Code/tasks.c ****  */
 462:../Generated_Code/tasks.c **** static void prvCheckTasksWaitingTermination( void ) PRIVILEGED_FUNCTION;
 463:../Generated_Code/tasks.c **** 
 464:../Generated_Code/tasks.c **** /*
 465:../Generated_Code/tasks.c ****  * The currently executing task is entering the Blocked state.  Add the task to
 466:../Generated_Code/tasks.c ****  * either the current or the overflow delayed task list.
 467:../Generated_Code/tasks.c ****  */
 468:../Generated_Code/tasks.c **** static void prvAddCurrentTaskToDelayedList( const TickType_t xTimeToWake ) PRIVILEGED_FUNCTION;
 469:../Generated_Code/tasks.c **** 
 470:../Generated_Code/tasks.c **** /*
 471:../Generated_Code/tasks.c ****  * Allocates memory from the heap for a TCB and associated stack.  Checks the
 472:../Generated_Code/tasks.c ****  * allocation was successful.
 473:../Generated_Code/tasks.c ****  */
 474:../Generated_Code/tasks.c **** static TCB_t *prvAllocateTCBAndStack( const uint16_t usStackDepth, StackType_t * const puxStackBuff
 475:../Generated_Code/tasks.c **** 
 476:../Generated_Code/tasks.c **** /*
 477:../Generated_Code/tasks.c ****  * Fills an TaskStatus_t structure with information on each task that is
 478:../Generated_Code/tasks.c ****  * referenced from the pxList list (which may be a ready list, a delayed list,
 479:../Generated_Code/tasks.c ****  * a suspended list, etc.).
 480:../Generated_Code/tasks.c ****  *
 481:../Generated_Code/tasks.c ****  * THIS FUNCTION IS INTENDED FOR DEBUGGING ONLY, AND SHOULD NOT BE CALLED FROM
 482:../Generated_Code/tasks.c ****  * NORMAL APPLICATION CODE.
 483:../Generated_Code/tasks.c ****  */
 484:../Generated_Code/tasks.c **** #if ( configUSE_TRACE_FACILITY == 1 )
 485:../Generated_Code/tasks.c **** 
 486:../Generated_Code/tasks.c ****         static UBaseType_t prvListTaskWithinSingleList( TaskStatus_t *pxTaskStatusArray, List_t *px
 487:../Generated_Code/tasks.c **** 
 488:../Generated_Code/tasks.c **** #endif
 489:../Generated_Code/tasks.c **** 
 490:../Generated_Code/tasks.c **** /*
 491:../Generated_Code/tasks.c ****  * When a task is created, the stack of the task is filled with a known value.
 492:../Generated_Code/tasks.c ****  * This function determines the 'high water mark' of the task stack by
 493:../Generated_Code/tasks.c ****  * determining how much of the stack remains at the original preset value.
 494:../Generated_Code/tasks.c ****  */
 495:../Generated_Code/tasks.c **** #if ( ( configUSE_TRACE_FACILITY == 1 ) || ( INCLUDE_uxTaskGetStackHighWaterMark == 1 ) )
 496:../Generated_Code/tasks.c **** 
 497:../Generated_Code/tasks.c ****         static uint16_t prvTaskCheckFreeStackSpace( const uint8_t * pucStackByte ) PRIVILEGED_FUNCT
 498:../Generated_Code/tasks.c **** 
 499:../Generated_Code/tasks.c **** #endif
 500:../Generated_Code/tasks.c **** 
 501:../Generated_Code/tasks.c **** /*
 502:../Generated_Code/tasks.c ****  * Return the amount of time, in ticks, that will pass before the kernel will
 503:../Generated_Code/tasks.c ****  * next move a task from the Blocked state to the Running state.
 504:../Generated_Code/tasks.c ****  *
 505:../Generated_Code/tasks.c ****  * This conditional compilation should use inequality to 0, not equality to 1.
 506:../Generated_Code/tasks.c ****  * This is to ensure portSUPPRESS_TICKS_AND_SLEEP() can be called when user
 507:../Generated_Code/tasks.c ****  * defined low power mode implementations require configUSE_TICKLESS_IDLE to be
 508:../Generated_Code/tasks.c ****  * set to a value other than 1.
 509:../Generated_Code/tasks.c ****  */
 510:../Generated_Code/tasks.c **** #if ( configUSE_TICKLESS_IDLE != 0 )
 511:../Generated_Code/tasks.c **** 
 512:../Generated_Code/tasks.c ****         static TickType_t prvGetExpectedIdleTime( void ) PRIVILEGED_FUNCTION;
 513:../Generated_Code/tasks.c **** 
 514:../Generated_Code/tasks.c **** #endif
 515:../Generated_Code/tasks.c **** 
 516:../Generated_Code/tasks.c **** /*
 517:../Generated_Code/tasks.c ****  * Set xNextTaskUnblockTime to the time at which the next Blocked state task
 518:../Generated_Code/tasks.c ****  * will exit the Blocked state.
 519:../Generated_Code/tasks.c ****  */
 520:../Generated_Code/tasks.c **** static void prvResetNextTaskUnblockTime( void );
 521:../Generated_Code/tasks.c **** 
 522:../Generated_Code/tasks.c **** /*-----------------------------------------------------------*/
 523:../Generated_Code/tasks.c **** 
 524:../Generated_Code/tasks.c **** BaseType_t xTaskGenericCreate( TaskFunction_t pxTaskCode, const char * const pcName, const uint16_t
 525:../Generated_Code/tasks.c **** {
 135              		.loc 1 525 0
 136              		.cfi_startproc
 137 0000 90B5     		push	{r4, r7, lr}
 138              	.LCFI0:
 139              		.cfi_def_cfa_offset 12
 140              		.cfi_offset 4, -12
 141              		.cfi_offset 7, -8
 142              		.cfi_offset 14, -4
 143 0002 8BB0     		sub	sp, sp, #44
 144              	.LCFI1:
 145              		.cfi_def_cfa_offset 56
 146 0004 02AF     		add	r7, sp, #8
 147              	.LCFI2:
 148              		.cfi_def_cfa 7, 48
 149 0006 F860     		str	r0, [r7, #12]
 150 0008 B960     		str	r1, [r7, #8]
 151 000a 3B60     		str	r3, [r7]
 152 000c BB1D     		add	r3, r7, #6
 153 000e 1A80     		strh	r2, [r3]
 154              	.LBB2:
 526:../Generated_Code/tasks.c **** BaseType_t xReturn;
 527:../Generated_Code/tasks.c **** TCB_t * pxNewTCB;
 528:../Generated_Code/tasks.c **** 
 529:../Generated_Code/tasks.c ****         configASSERT( pxTaskCode );
 155              		.loc 1 529 0
 156 0010 FB68     		ldr	r3, [r7, #12]
 157 0012 002B     		cmp	r3, #0
 158 0014 01D1     		bne	.L2
 159              		.loc 1 529 0 is_stmt 0
 160              	@ 529 "../Generated_Code/tasks.c" 1
 161 0016 72B6     		cpsid i
 162              	@ 0 "" 2
 163              		.code	16
 164              	.L3:
 165              		.loc 1 529 0
 166 0018 FEE7     		b	.L3
 167              	.L2:
 530:../Generated_Code/tasks.c ****         configASSERT( ( ( uxPriority & ( ~portPRIVILEGE_BIT ) ) < configMAX_PRIORITIES ) );
 168              		.loc 1 530 0 is_stmt 1
 169 001a 3B6B     		ldr	r3, [r7, #48]
 170 001c 052B     		cmp	r3, #5
 171 001e 01D9     		bls	.L4
 172              		.loc 1 530 0 is_stmt 0
 173              	@ 530 "../Generated_Code/tasks.c" 1
 174 0020 72B6     		cpsid i
 175              	@ 0 "" 2
 176              		.code	16
 177              	.L5:
 178              		.loc 1 530 0
 179 0022 FEE7     		b	.L5
 180              	.L4:
 531:../Generated_Code/tasks.c **** 
 532:../Generated_Code/tasks.c ****         /* Allocate the memory required by the TCB and stack for the new task,
 533:../Generated_Code/tasks.c ****         checking that the allocation was successful. */
 534:../Generated_Code/tasks.c ****         pxNewTCB = prvAllocateTCBAndStack( usStackDepth, puxStackBuffer );
 181              		.loc 1 534 0 is_stmt 1
 182 0024 BB1D     		add	r3, r7, #6
 183 0026 1A88     		ldrh	r2, [r3]
 184 0028 BB6B     		ldr	r3, [r7, #56]
 185 002a 101C     		mov	r0, r2
 186 002c 191C     		mov	r1, r3
 187 002e FFF7FEFF 		bl	_ZL22prvAllocateTCBAndStacktPm
 188 0032 031C     		mov	r3, r0
 189 0034 BB61     		str	r3, [r7, #24]
 190              	.LBB3:
 535:../Generated_Code/tasks.c **** 
 536:../Generated_Code/tasks.c ****         if( pxNewTCB != NULL )
 191              		.loc 1 536 0
 192 0036 BB69     		ldr	r3, [r7, #24]
 193 0038 002B     		cmp	r3, #0
 194 003a 00D1     		bne	.LCB53
 195 003c 81E0     		b	.L6	@long jump
 196              	.LCB53:
 197              	.LBB4:
 537:../Generated_Code/tasks.c ****         {
 538:../Generated_Code/tasks.c ****                 StackType_t *pxTopOfStack;
 539:../Generated_Code/tasks.c **** 
 540:../Generated_Code/tasks.c ****                 #if( portUSING_MPU_WRAPPERS == 1 )
 541:../Generated_Code/tasks.c ****                         /* Should the task be created in privileged mode? */
 542:../Generated_Code/tasks.c ****                         BaseType_t xRunPrivileged;
 543:../Generated_Code/tasks.c ****                         if( ( uxPriority & portPRIVILEGE_BIT ) != 0U )
 544:../Generated_Code/tasks.c ****                         {
 545:../Generated_Code/tasks.c ****                                 xRunPrivileged = pdTRUE;
 546:../Generated_Code/tasks.c ****                         }
 547:../Generated_Code/tasks.c ****                         else
 548:../Generated_Code/tasks.c ****                         {
 549:../Generated_Code/tasks.c ****                                 xRunPrivileged = pdFALSE;
 550:../Generated_Code/tasks.c ****                         }
 551:../Generated_Code/tasks.c ****                         uxPriority &= ~portPRIVILEGE_BIT;
 552:../Generated_Code/tasks.c ****                 #endif /* portUSING_MPU_WRAPPERS == 1 */
 553:../Generated_Code/tasks.c **** 
 554:../Generated_Code/tasks.c ****                 /* Calculate the top of stack address.  This depends on whether the
 555:../Generated_Code/tasks.c ****                 stack grows from high memory to low (as per the 80x86) or vice versa.
 556:../Generated_Code/tasks.c ****                 portSTACK_GROWTH is used to make the result positive or negative as
 557:../Generated_Code/tasks.c ****                 required by the port. */
 558:../Generated_Code/tasks.c ****                 #if( portSTACK_GROWTH < 0 )
 559:../Generated_Code/tasks.c ****                 {
 560:../Generated_Code/tasks.c ****                         pxTopOfStack = pxNewTCB->pxStack + ( usStackDepth - ( uint16_t ) 1 );
 198              		.loc 1 560 0
 199 003e BB69     		ldr	r3, [r7, #24]
 200 0040 1A6B     		ldr	r2, [r3, #48]
 201 0042 BB1D     		add	r3, r7, #6
 202 0044 1B88     		ldrh	r3, [r3]
 203 0046 013B     		sub	r3, r3, #1
 204 0048 9B00     		lsl	r3, r3, #2
 205 004a D318     		add	r3, r2, r3
 206 004c 7B61     		str	r3, [r7, #20]
 561:../Generated_Code/tasks.c ****                         pxTopOfStack = ( StackType_t * ) ( ( ( portPOINTER_SIZE_TYPE ) pxTopOfStack
 207              		.loc 1 561 0
 208 004e 7B69     		ldr	r3, [r7, #20]
 209 0050 0722     		mov	r2, #7
 210 0052 9343     		bic	r3, r2
 211 0054 7B61     		str	r3, [r7, #20]
 562:../Generated_Code/tasks.c **** 
 563:../Generated_Code/tasks.c ****                         /* Check the alignment of the calculated top of stack is correct. */
 564:../Generated_Code/tasks.c ****                         configASSERT( ( ( ( uint32_t ) pxTopOfStack & ( uint32_t ) portBYTE_ALIGNME
 212              		.loc 1 564 0
 213 0056 7A69     		ldr	r2, [r7, #20]
 214 0058 0723     		mov	r3, #7
 215 005a 1340     		and	r3, r2
 216 005c 01D0     		beq	.L7
 217              		.loc 1 564 0 is_stmt 0
 218              	@ 564 "../Generated_Code/tasks.c" 1
 219 005e 72B6     		cpsid i
 220              	@ 0 "" 2
 221              		.code	16
 222              	.L8:
 223              		.loc 1 564 0
 224 0060 FEE7     		b	.L8
 225              	.L7:
 565:../Generated_Code/tasks.c ****                 }
 566:../Generated_Code/tasks.c ****                 #else /* portSTACK_GROWTH */
 567:../Generated_Code/tasks.c ****                 {
 568:../Generated_Code/tasks.c ****                         pxTopOfStack = pxNewTCB->pxStack;
 569:../Generated_Code/tasks.c **** 
 570:../Generated_Code/tasks.c ****                         /* Check the alignment of the stack buffer is correct. */
 571:../Generated_Code/tasks.c ****                         configASSERT( ( ( ( uint32_t ) pxNewTCB->pxStack & ( uint32_t ) portBYTE_AL
 572:../Generated_Code/tasks.c **** 
 573:../Generated_Code/tasks.c ****                         /* If we want to use stack checking on architectures that use
 574:../Generated_Code/tasks.c ****                         a positive stack growth direction then we also need to store the
 575:../Generated_Code/tasks.c ****                         other extreme of the stack space. */
 576:../Generated_Code/tasks.c ****                         pxNewTCB->pxEndOfStack = pxNewTCB->pxStack + ( usStackDepth - 1 );
 577:../Generated_Code/tasks.c ****                 }
 578:../Generated_Code/tasks.c ****                 #endif /* portSTACK_GROWTH */
 579:../Generated_Code/tasks.c **** 
 580:../Generated_Code/tasks.c ****                 /* Setup the newly allocated TCB with the initial state of the task. */
 581:../Generated_Code/tasks.c ****                 prvInitialiseTCBVariables( pxNewTCB, pcName, uxPriority, xRegions, usStackDepth );
 226              		.loc 1 581 0 is_stmt 1
 227 0062 B869     		ldr	r0, [r7, #24]
 228 0064 B968     		ldr	r1, [r7, #8]
 229 0066 3A6B     		ldr	r2, [r7, #48]
 230 0068 FB6B     		ldr	r3, [r7, #60]
 231 006a BC1D     		add	r4, r7, #6
 232 006c 2488     		ldrh	r4, [r4]
 233 006e 0094     		str	r4, [sp]
 234 0070 FFF7FEFF 		bl	_ZL25prvInitialiseTCBVariablesP19tskTaskControlBlockPKcmPK14xMEMORY_REGIONt
 582:../Generated_Code/tasks.c **** 
 583:../Generated_Code/tasks.c ****                 /* Initialize the TCB stack to look as if the task was already running,
 584:../Generated_Code/tasks.c ****                 but had been interrupted by the scheduler.  The return address is set
 585:../Generated_Code/tasks.c ****                 to the start of the task function. Once the stack has been initialised
 586:../Generated_Code/tasks.c ****                 the     top of stack variable is updated. */
 587:../Generated_Code/tasks.c ****                 #if( portUSING_MPU_WRAPPERS == 1 )
 588:../Generated_Code/tasks.c ****                 {
 589:../Generated_Code/tasks.c ****                         pxNewTCB->pxTopOfStack = pxPortInitialiseStack( pxTopOfStack, pxTaskCode, p
 590:../Generated_Code/tasks.c ****                 }
 591:../Generated_Code/tasks.c ****                 #else /* portUSING_MPU_WRAPPERS */
 592:../Generated_Code/tasks.c ****                 {
 593:../Generated_Code/tasks.c ****                         pxNewTCB->pxTopOfStack = pxPortInitialiseStack( pxTopOfStack, pxTaskCode, p
 235              		.loc 1 593 0
 236 0074 7969     		ldr	r1, [r7, #20]
 237 0076 FA68     		ldr	r2, [r7, #12]
 238 0078 3B68     		ldr	r3, [r7]
 239 007a 081C     		mov	r0, r1
 240 007c 111C     		mov	r1, r2
 241 007e 1A1C     		mov	r2, r3
 242 0080 FFF7FEFF 		bl	pxPortInitialiseStack
 243 0084 021C     		mov	r2, r0
 244 0086 BB69     		ldr	r3, [r7, #24]
 245 0088 1A60     		str	r2, [r3]
 594:../Generated_Code/tasks.c ****                 }
 595:../Generated_Code/tasks.c ****                 #endif /* portUSING_MPU_WRAPPERS */
 596:../Generated_Code/tasks.c **** 
 597:../Generated_Code/tasks.c ****                 if( ( void * ) pxCreatedTask != NULL )
 246              		.loc 1 597 0
 247 008a 7B6B     		ldr	r3, [r7, #52]
 248 008c 002B     		cmp	r3, #0
 249 008e 02D0     		beq	.L9
 598:../Generated_Code/tasks.c ****                 {
 599:../Generated_Code/tasks.c ****                         /* Pass the TCB out - in an anonymous way.  The calling function/
 600:../Generated_Code/tasks.c ****                         task can use this as a handle to delete the task later if
 601:../Generated_Code/tasks.c ****                         required.*/
 602:../Generated_Code/tasks.c ****                         *pxCreatedTask = ( TaskHandle_t ) pxNewTCB;
 250              		.loc 1 602 0
 251 0090 7B6B     		ldr	r3, [r7, #52]
 252 0092 BA69     		ldr	r2, [r7, #24]
 253 0094 1A60     		str	r2, [r3]
 254              	.L9:
 603:../Generated_Code/tasks.c ****                 }
 604:../Generated_Code/tasks.c ****                 else
 605:../Generated_Code/tasks.c ****                 {
 606:../Generated_Code/tasks.c ****                         mtCOVERAGE_TEST_MARKER();
 607:../Generated_Code/tasks.c ****                 }
 608:../Generated_Code/tasks.c **** 
 609:../Generated_Code/tasks.c ****                 /* Ensure interrupts don't access the task lists while they are being
 610:../Generated_Code/tasks.c ****                 updated. */
 611:../Generated_Code/tasks.c ****                 taskENTER_CRITICAL();
 255              		.loc 1 611 0
 256 0096 FFF7FEFF 		bl	vPortEnterCritical
 612:../Generated_Code/tasks.c ****                 {
 613:../Generated_Code/tasks.c ****                         uxCurrentNumberOfTasks++;
 257              		.loc 1 613 0
 258 009a 394B     		ldr	r3, .L16
 259 009c 1B68     		ldr	r3, [r3]
 260 009e 5A1C     		add	r2, r3, #1
 261 00a0 374B     		ldr	r3, .L16
 262 00a2 1A60     		str	r2, [r3]
 614:../Generated_Code/tasks.c ****                         if( pxCurrentTCB == NULL )
 263              		.loc 1 614 0
 264 00a4 374B     		ldr	r3, .L16+4
 265 00a6 1B68     		ldr	r3, [r3]
 266 00a8 5A42     		neg	r2, r3
 267 00aa 5341     		adc	r3, r3, r2
 268 00ac DBB2     		uxtb	r3, r3
 269 00ae 002B     		cmp	r3, #0
 270 00b0 0DD0     		beq	.L10
 615:../Generated_Code/tasks.c ****                         {
 616:../Generated_Code/tasks.c ****                                 /* There are no other tasks, or all the other tasks are in
 617:../Generated_Code/tasks.c ****                                 the suspended state - make this the current task. */
 618:../Generated_Code/tasks.c ****                                 pxCurrentTCB =  pxNewTCB;
 271              		.loc 1 618 0
 272 00b2 344B     		ldr	r3, .L16+4
 273 00b4 BA69     		ldr	r2, [r7, #24]
 274 00b6 1A60     		str	r2, [r3]
 619:../Generated_Code/tasks.c **** 
 620:../Generated_Code/tasks.c ****                                 if( uxCurrentNumberOfTasks == ( UBaseType_t ) 1 )
 275              		.loc 1 620 0
 276 00b8 314B     		ldr	r3, .L16
 277 00ba 1B68     		ldr	r3, [r3]
 278 00bc 013B     		sub	r3, r3, #1
 279 00be 5A42     		neg	r2, r3
 280 00c0 5341     		adc	r3, r3, r2
 281 00c2 DBB2     		uxtb	r3, r3
 282 00c4 002B     		cmp	r3, #0
 283 00c6 16D0     		beq	.L11
 621:../Generated_Code/tasks.c ****                                 {
 622:../Generated_Code/tasks.c ****                                         /* This is the first task to be created so do the prelimina
 623:../Generated_Code/tasks.c ****                                         initialisation required.  We will not recover if this call
 624:../Generated_Code/tasks.c ****                                         fails, but we will report the failure. */
 625:../Generated_Code/tasks.c ****                                         prvInitialiseTaskLists();
 284              		.loc 1 625 0
 285 00c8 FFF7FEFF 		bl	_ZL22prvInitialiseTaskListsv
 286 00cc 13E0     		b	.L11
 287              	.L10:
 626:../Generated_Code/tasks.c ****                                 }
 627:../Generated_Code/tasks.c ****                                 else
 628:../Generated_Code/tasks.c ****                                 {
 629:../Generated_Code/tasks.c ****                                         mtCOVERAGE_TEST_MARKER();
 630:../Generated_Code/tasks.c ****                                 }
 631:../Generated_Code/tasks.c ****                         }
 632:../Generated_Code/tasks.c ****                         else
 633:../Generated_Code/tasks.c ****                         {
 634:../Generated_Code/tasks.c ****                                 /* If the scheduler is not already running, make this task the
 635:../Generated_Code/tasks.c ****                                 current task if it is the highest priority task to be created
 636:../Generated_Code/tasks.c ****                                 so far. */
 637:../Generated_Code/tasks.c ****                                 if( xSchedulerRunning == pdFALSE )
 288              		.loc 1 637 0
 289 00ce 2E4B     		ldr	r3, .L16+8
 290 00d0 1B68     		ldr	r3, [r3]
 291 00d2 5A42     		neg	r2, r3
 292 00d4 5341     		adc	r3, r3, r2
 293 00d6 DBB2     		uxtb	r3, r3
 294 00d8 002B     		cmp	r3, #0
 295 00da 0CD0     		beq	.L11
 638:../Generated_Code/tasks.c ****                                 {
 639:../Generated_Code/tasks.c ****                                         if( pxCurrentTCB->uxPriority <= uxPriority )
 296              		.loc 1 639 0
 297 00dc 294B     		ldr	r3, .L16+4
 298 00de 1B68     		ldr	r3, [r3]
 299 00e0 DA6A     		ldr	r2, [r3, #44]
 300 00e2 396B     		ldr	r1, [r7, #48]
 301 00e4 0023     		mov	r3, #0
 302 00e6 9142     		cmp	r1, r2
 303 00e8 5B41     		adc	r3, r3, r3
 304 00ea DBB2     		uxtb	r3, r3
 305 00ec 002B     		cmp	r3, #0
 306 00ee 02D0     		beq	.L11
 640:../Generated_Code/tasks.c ****                                         {
 641:../Generated_Code/tasks.c ****                                                 pxCurrentTCB = pxNewTCB;
 307              		.loc 1 641 0
 308 00f0 244B     		ldr	r3, .L16+4
 309 00f2 BA69     		ldr	r2, [r7, #24]
 310 00f4 1A60     		str	r2, [r3]
 311              	.L11:
 642:../Generated_Code/tasks.c ****                                         }
 643:../Generated_Code/tasks.c ****                                         else
 644:../Generated_Code/tasks.c ****                                         {
 645:../Generated_Code/tasks.c ****                                                 mtCOVERAGE_TEST_MARKER();
 646:../Generated_Code/tasks.c ****                                         }
 647:../Generated_Code/tasks.c ****                                 }
 648:../Generated_Code/tasks.c ****                                 else
 649:../Generated_Code/tasks.c ****                                 {
 650:../Generated_Code/tasks.c ****                                         mtCOVERAGE_TEST_MARKER();
 651:../Generated_Code/tasks.c ****                                 }
 652:../Generated_Code/tasks.c ****                         }
 653:../Generated_Code/tasks.c **** 
 654:../Generated_Code/tasks.c ****                         uxTaskNumber++;
 312              		.loc 1 654 0
 313 00f6 254B     		ldr	r3, .L16+12
 314 00f8 1B68     		ldr	r3, [r3]
 315 00fa 5A1C     		add	r2, r3, #1
 316 00fc 234B     		ldr	r3, .L16+12
 317 00fe 1A60     		str	r2, [r3]
 655:../Generated_Code/tasks.c **** 
 656:../Generated_Code/tasks.c ****                         #if ( configUSE_TRACE_FACILITY == 1 )
 657:../Generated_Code/tasks.c ****                         {
 658:../Generated_Code/tasks.c ****                                 /* Add a counter into the TCB for tracing only. */
 659:../Generated_Code/tasks.c ****                                 pxNewTCB->uxTCBNumber = uxTaskNumber;
 660:../Generated_Code/tasks.c ****                         }
 661:../Generated_Code/tasks.c ****                         #endif /* configUSE_TRACE_FACILITY */
 662:../Generated_Code/tasks.c ****                         traceTASK_CREATE( pxNewTCB );
 663:../Generated_Code/tasks.c **** 
 664:../Generated_Code/tasks.c ****                         prvAddTaskToReadyList( pxNewTCB );
 318              		.loc 1 664 0
 319 0100 BB69     		ldr	r3, [r7, #24]
 320 0102 DA6A     		ldr	r2, [r3, #44]
 321 0104 224B     		ldr	r3, .L16+16
 322 0106 1B68     		ldr	r3, [r3]
 323 0108 9342     		cmp	r3, r2
 324 010a 9B41     		sbc	r3, r3, r3
 325 010c 5B42     		neg	r3, r3
 326 010e DBB2     		uxtb	r3, r3
 327 0110 002B     		cmp	r3, #0
 328 0112 03D0     		beq	.L12
 329              		.loc 1 664 0 is_stmt 0
 330 0114 BB69     		ldr	r3, [r7, #24]
 331 0116 DA6A     		ldr	r2, [r3, #44]
 332 0118 1D4B     		ldr	r3, .L16+16
 333 011a 1A60     		str	r2, [r3]
 334              	.L12:
 335              		.loc 1 664 0
 336 011c BB69     		ldr	r3, [r7, #24]
 337 011e DA6A     		ldr	r2, [r3, #44]
 338 0120 131C     		mov	r3, r2
 339 0122 9B00     		lsl	r3, r3, #2
 340 0124 9B18     		add	r3, r3, r2
 341 0126 9B00     		lsl	r3, r3, #2
 342 0128 1A4A     		ldr	r2, .L16+20
 343 012a 9A18     		add	r2, r3, r2
 344 012c BB69     		ldr	r3, [r7, #24]
 345 012e 0433     		add	r3, r3, #4
 346 0130 101C     		mov	r0, r2
 347 0132 191C     		mov	r1, r3
 348 0134 FFF7FEFF 		bl	vListInsertEnd
 665:../Generated_Code/tasks.c **** 
 666:../Generated_Code/tasks.c ****                         xReturn = pdPASS;
 349              		.loc 1 666 0 is_stmt 1
 350 0138 0123     		mov	r3, #1
 351 013a FB61     		str	r3, [r7, #28]
 667:../Generated_Code/tasks.c ****                         portSETUP_TCB( pxNewTCB );
 668:../Generated_Code/tasks.c ****                 }
 669:../Generated_Code/tasks.c ****                 taskEXIT_CRITICAL();
 352              		.loc 1 669 0
 353 013c FFF7FEFF 		bl	vPortExitCritical
 354 0140 02E0     		b	.L13
 355              	.L6:
 356              	.LBE4:
 670:../Generated_Code/tasks.c ****         }
 671:../Generated_Code/tasks.c ****         else
 672:../Generated_Code/tasks.c ****         {
 673:../Generated_Code/tasks.c ****                 xReturn = errCOULD_NOT_ALLOCATE_REQUIRED_MEMORY;
 357              		.loc 1 673 0
 358 0142 0123     		mov	r3, #1
 359 0144 5B42     		neg	r3, r3
 360 0146 FB61     		str	r3, [r7, #28]
 361              	.L13:
 362              	.LBE3:
 674:../Generated_Code/tasks.c ****                 traceTASK_CREATE_FAILED();
 675:../Generated_Code/tasks.c ****         }
 676:../Generated_Code/tasks.c **** 
 677:../Generated_Code/tasks.c ****         if( xReturn == pdPASS )
 363              		.loc 1 677 0
 364 0148 FB69     		ldr	r3, [r7, #28]
 365 014a 012B     		cmp	r3, #1
 366 014c 12D1     		bne	.L14
 678:../Generated_Code/tasks.c ****         {
 679:../Generated_Code/tasks.c ****                 if( xSchedulerRunning != pdFALSE )
 367              		.loc 1 679 0
 368 014e 0E4B     		ldr	r3, .L16+8
 369 0150 1B68     		ldr	r3, [r3]
 370 0152 5A1E     		sub	r2, r3, #1
 371 0154 9341     		sbc	r3, r3, r2
 372 0156 DBB2     		uxtb	r3, r3
 373 0158 002B     		cmp	r3, #0
 374 015a 0BD0     		beq	.L14
 680:../Generated_Code/tasks.c ****                 {
 681:../Generated_Code/tasks.c ****                         /* If the created task is of a higher priority than the current task
 682:../Generated_Code/tasks.c ****                         then it should run now. */
 683:../Generated_Code/tasks.c ****                         if( pxCurrentTCB->uxPriority < uxPriority )
 375              		.loc 1 683 0
 376 015c 094B     		ldr	r3, .L16+4
 377 015e 1B68     		ldr	r3, [r3]
 378 0160 DA6A     		ldr	r2, [r3, #44]
 379 0162 3B6B     		ldr	r3, [r7, #48]
 380 0164 9A42     		cmp	r2, r3
 381 0166 9B41     		sbc	r3, r3, r3
 382 0168 5B42     		neg	r3, r3
 383 016a DBB2     		uxtb	r3, r3
 384 016c 002B     		cmp	r3, #0
 385 016e 01D0     		beq	.L14
 684:../Generated_Code/tasks.c ****                         {
 685:../Generated_Code/tasks.c ****                                 taskYIELD_IF_USING_PREEMPTION();
 386              		.loc 1 685 0
 387 0170 FFF7FEFF 		bl	vPortYieldFromISR
 388              	.L14:
 686:../Generated_Code/tasks.c ****                         }
 687:../Generated_Code/tasks.c ****                         else
 688:../Generated_Code/tasks.c ****                         {
 689:../Generated_Code/tasks.c ****                                 mtCOVERAGE_TEST_MARKER();
 690:../Generated_Code/tasks.c ****                         }
 691:../Generated_Code/tasks.c ****                 }
 692:../Generated_Code/tasks.c ****                 else
 693:../Generated_Code/tasks.c ****                 {
 694:../Generated_Code/tasks.c ****                         mtCOVERAGE_TEST_MARKER();
 695:../Generated_Code/tasks.c ****                 }
 696:../Generated_Code/tasks.c ****         }
 697:../Generated_Code/tasks.c **** 
 698:../Generated_Code/tasks.c ****         return xReturn;
 389              		.loc 1 698 0
 390 0174 FB69     		ldr	r3, [r7, #28]
 391              	.LBE2:
 699:../Generated_Code/tasks.c **** }
 392              		.loc 1 699 0
 393 0176 181C     		mov	r0, r3
 394 0178 BD46     		mov	sp, r7
 395 017a 09B0     		add	sp, sp, #36
 396              		@ sp needed for prologue
 397 017c 90BD     		pop	{r4, r7, pc}
 398              	.L17:
 399 017e C046     		.align	2
 400              	.L16:
 401 0180 00000000 		.word	_ZL22uxCurrentNumberOfTasks
 402 0184 00000000 		.word	pxCurrentTCB
 403 0188 00000000 		.word	_ZL17xSchedulerRunning
 404 018c 00000000 		.word	_ZL12uxTaskNumber
 405 0190 00000000 		.word	_ZL18uxTopReadyPriority
 406 0194 00000000 		.word	_ZL17pxReadyTasksLists
 407              		.cfi_endproc
 408              	.LFE9:
 410              		.section	.text.vTaskDelayUntil,"ax",%progbits
 411              		.align	2
 412              		.global	vTaskDelayUntil
 413              		.code	16
 414              		.thumb_func
 416              	vTaskDelayUntil:
 417              	.LFB10:
 700:../Generated_Code/tasks.c **** /*-----------------------------------------------------------*/
 701:../Generated_Code/tasks.c **** 
 702:../Generated_Code/tasks.c **** #if ( INCLUDE_vTaskDelete == 1 )
 703:../Generated_Code/tasks.c **** 
 704:../Generated_Code/tasks.c ****         void vTaskDelete( TaskHandle_t xTaskToDelete )
 705:../Generated_Code/tasks.c ****         {
 706:../Generated_Code/tasks.c ****         TCB_t *pxTCB;
 707:../Generated_Code/tasks.c **** 
 708:../Generated_Code/tasks.c ****                 taskENTER_CRITICAL();
 709:../Generated_Code/tasks.c ****                 {
 710:../Generated_Code/tasks.c ****                         /* If null is passed in here then it is the calling task that is
 711:../Generated_Code/tasks.c ****                         being deleted. */
 712:../Generated_Code/tasks.c ****                         pxTCB = prvGetTCBFromHandle( xTaskToDelete );
 713:../Generated_Code/tasks.c **** 
 714:../Generated_Code/tasks.c ****                         /* Remove task from the ready list and place in the     termination list.
 715:../Generated_Code/tasks.c ****                         This will stop the task from be scheduled.  The idle task will check
 716:../Generated_Code/tasks.c ****                         the termination list and free up any memory allocated by the
 717:../Generated_Code/tasks.c ****                         scheduler for the TCB and stack. */
 718:../Generated_Code/tasks.c ****                         if( uxListRemove( &( pxTCB->xGenericListItem ) ) == ( UBaseType_t ) 0 )
 719:../Generated_Code/tasks.c ****                         {
 720:../Generated_Code/tasks.c ****                                 taskRESET_READY_PRIORITY( pxTCB->uxPriority );
 721:../Generated_Code/tasks.c ****                         }
 722:../Generated_Code/tasks.c ****                         else
 723:../Generated_Code/tasks.c ****                         {
 724:../Generated_Code/tasks.c ****                                 mtCOVERAGE_TEST_MARKER();
 725:../Generated_Code/tasks.c ****                         }
 726:../Generated_Code/tasks.c **** 
 727:../Generated_Code/tasks.c ****                         /* Is the task waiting on an event also? */
 728:../Generated_Code/tasks.c ****                         if( listLIST_ITEM_CONTAINER( &( pxTCB->xEventListItem ) ) != NULL )
 729:../Generated_Code/tasks.c ****                         {
 730:../Generated_Code/tasks.c ****                                 ( void ) uxListRemove( &( pxTCB->xEventListItem ) );
 731:../Generated_Code/tasks.c ****                         }
 732:../Generated_Code/tasks.c ****                         else
 733:../Generated_Code/tasks.c ****                         {
 734:../Generated_Code/tasks.c ****                                 mtCOVERAGE_TEST_MARKER();
 735:../Generated_Code/tasks.c ****                         }
 736:../Generated_Code/tasks.c **** 
 737:../Generated_Code/tasks.c ****                         vListInsertEnd( &xTasksWaitingTermination, &( pxTCB->xGenericListItem ) );
 738:../Generated_Code/tasks.c **** 
 739:../Generated_Code/tasks.c ****                         /* Increment the ucTasksDeleted variable so the idle task knows
 740:../Generated_Code/tasks.c ****                         there is a task that has been deleted and that it should therefore
 741:../Generated_Code/tasks.c ****                         check the xTasksWaitingTermination list. */
 742:../Generated_Code/tasks.c ****                         ++uxTasksDeleted;
 743:../Generated_Code/tasks.c **** 
 744:../Generated_Code/tasks.c ****                         /* Increment the uxTaskNumberVariable also so kernel aware debuggers
 745:../Generated_Code/tasks.c ****                         can detect that the task lists need re-generating. */
 746:../Generated_Code/tasks.c ****                         uxTaskNumber++;
 747:../Generated_Code/tasks.c **** 
 748:../Generated_Code/tasks.c ****                         traceTASK_DELETE( pxTCB );
 749:../Generated_Code/tasks.c ****                 }
 750:../Generated_Code/tasks.c ****                 taskEXIT_CRITICAL();
 751:../Generated_Code/tasks.c **** 
 752:../Generated_Code/tasks.c ****                 /* Force a reschedule if it is the currently running task that has just
 753:../Generated_Code/tasks.c ****                 been deleted. */
 754:../Generated_Code/tasks.c ****                 if( xSchedulerRunning != pdFALSE )
 755:../Generated_Code/tasks.c ****                 {
 756:../Generated_Code/tasks.c ****                         if( pxTCB == pxCurrentTCB )
 757:../Generated_Code/tasks.c ****                         {
 758:../Generated_Code/tasks.c ****                                 configASSERT( uxSchedulerSuspended == 0 );
 759:../Generated_Code/tasks.c **** 
 760:../Generated_Code/tasks.c ****                                 /* The pre-delete hook is primarily for the Windows simulator,
 761:../Generated_Code/tasks.c ****                                 in which Windows specific clean up operations are performed,
 762:../Generated_Code/tasks.c ****                                 after which it is not possible to yield away from this task -
 763:../Generated_Code/tasks.c ****                                 hence xYieldPending is used to latch that a context switch is
 764:../Generated_Code/tasks.c ****                                 required. */
 765:../Generated_Code/tasks.c ****                                 portPRE_TASK_DELETE_HOOK( pxTCB, &xYieldPending );
 766:../Generated_Code/tasks.c ****                                 portYIELD_WITHIN_API();
 767:../Generated_Code/tasks.c ****                         }
 768:../Generated_Code/tasks.c ****                         else
 769:../Generated_Code/tasks.c ****                         {
 770:../Generated_Code/tasks.c ****                                 /* Reset the next expected unblock time in case it referred to
 771:../Generated_Code/tasks.c ****                                 the task that has just been deleted. */
 772:../Generated_Code/tasks.c ****                                 prvResetNextTaskUnblockTime();
 773:../Generated_Code/tasks.c ****                         }
 774:../Generated_Code/tasks.c ****                 }
 775:../Generated_Code/tasks.c ****         }
 776:../Generated_Code/tasks.c **** 
 777:../Generated_Code/tasks.c **** #endif /* INCLUDE_vTaskDelete */
 778:../Generated_Code/tasks.c **** /*-----------------------------------------------------------*/
 779:../Generated_Code/tasks.c **** 
 780:../Generated_Code/tasks.c **** #if ( INCLUDE_vTaskDelayUntil == 1 )
 781:../Generated_Code/tasks.c **** 
 782:../Generated_Code/tasks.c ****         void vTaskDelayUntil( TickType_t * const pxPreviousWakeTime, const TickType_t xTimeIncremen
 783:../Generated_Code/tasks.c ****         {
 418              		.loc 1 783 0
 419              		.cfi_startproc
 420 0000 80B5     		push	{r7, lr}
 421              	.LCFI3:
 422              		.cfi_def_cfa_offset 8
 423              		.cfi_offset 7, -8
 424              		.cfi_offset 14, -4
 425 0002 86B0     		sub	sp, sp, #24
 426              	.LCFI4:
 427              		.cfi_def_cfa_offset 32
 428 0004 00AF     		add	r7, sp, #0
 429              	.LCFI5:
 430              		.cfi_def_cfa_register 7
 431 0006 7860     		str	r0, [r7, #4]
 432 0008 3960     		str	r1, [r7]
 433              	.LBB5:
 784:../Generated_Code/tasks.c ****         TickType_t xTimeToWake;
 785:../Generated_Code/tasks.c ****         BaseType_t xAlreadyYielded, xShouldDelay = pdFALSE;
 434              		.loc 1 785 0
 435 000a 0023     		mov	r3, #0
 436 000c 7B61     		str	r3, [r7, #20]
 786:../Generated_Code/tasks.c **** 
 787:../Generated_Code/tasks.c ****                 configASSERT( pxPreviousWakeTime );
 437              		.loc 1 787 0
 438 000e 7B68     		ldr	r3, [r7, #4]
 439 0010 002B     		cmp	r3, #0
 440 0012 01D1     		bne	.L19
 441              		.loc 1 787 0 is_stmt 0
 442              	@ 787 "../Generated_Code/tasks.c" 1
 443 0014 72B6     		cpsid i
 444              	@ 0 "" 2
 445              		.code	16
 446              	.L20:
 447              		.loc 1 787 0
 448 0016 FEE7     		b	.L20
 449              	.L19:
 788:../Generated_Code/tasks.c ****                 configASSERT( ( xTimeIncrement > 0U ) );
 450              		.loc 1 788 0 is_stmt 1
 451 0018 3B68     		ldr	r3, [r7]
 452 001a 002B     		cmp	r3, #0
 453 001c 01D1     		bne	.L21
 454              		.loc 1 788 0 is_stmt 0
 455              	@ 788 "../Generated_Code/tasks.c" 1
 456 001e 72B6     		cpsid i
 457              	@ 0 "" 2
 458              		.code	16
 459              	.L22:
 460              		.loc 1 788 0
 461 0020 FEE7     		b	.L22
 462              	.L21:
 789:../Generated_Code/tasks.c ****                 configASSERT( uxSchedulerSuspended == 0 );
 463              		.loc 1 789 0 is_stmt 1
 464 0022 254B     		ldr	r3, .L30
 465 0024 1B68     		ldr	r3, [r3]
 466 0026 5A1E     		sub	r2, r3, #1
 467 0028 9341     		sbc	r3, r3, r2
 468 002a DBB2     		uxtb	r3, r3
 469 002c 002B     		cmp	r3, #0
 470 002e 01D0     		beq	.L23
 471              		.loc 1 789 0 is_stmt 0
 472              	@ 789 "../Generated_Code/tasks.c" 1
 473 0030 72B6     		cpsid i
 474              	@ 0 "" 2
 475              		.code	16
 476              	.L24:
 477              		.loc 1 789 0
 478 0032 FEE7     		b	.L24
 479              	.L23:
 790:../Generated_Code/tasks.c **** 
 791:../Generated_Code/tasks.c ****                 vTaskSuspendAll();
 480              		.loc 1 791 0 is_stmt 1
 481 0034 FFF7FEFF 		bl	vTaskSuspendAll
 482              	.LBB6:
 792:../Generated_Code/tasks.c ****                 {
 793:../Generated_Code/tasks.c ****                         /* Minor optimisation.  The tick count cannot change in this
 794:../Generated_Code/tasks.c ****                         block. */
 795:../Generated_Code/tasks.c ****                         const TickType_t xConstTickCount = xTickCount;
 483              		.loc 1 795 0
 484 0038 204B     		ldr	r3, .L30+4
 485 003a 1B68     		ldr	r3, [r3]
 486 003c 3B61     		str	r3, [r7, #16]
 796:../Generated_Code/tasks.c **** 
 797:../Generated_Code/tasks.c ****                         /* Generate the tick time at which the task wants to wake. */
 798:../Generated_Code/tasks.c ****                         xTimeToWake = *pxPreviousWakeTime + xTimeIncrement;
 487              		.loc 1 798 0
 488 003e 7B68     		ldr	r3, [r7, #4]
 489 0040 1A68     		ldr	r2, [r3]
 490 0042 3B68     		ldr	r3, [r7]
 491 0044 D318     		add	r3, r2, r3
 492 0046 FB60     		str	r3, [r7, #12]
 799:../Generated_Code/tasks.c **** 
 800:../Generated_Code/tasks.c ****                         if( xConstTickCount < *pxPreviousWakeTime )
 493              		.loc 1 800 0
 494 0048 7B68     		ldr	r3, [r7, #4]
 495 004a 1A68     		ldr	r2, [r3]
 496 004c 3B69     		ldr	r3, [r7, #16]
 497 004e 9A42     		cmp	r2, r3
 498 0050 0BD9     		bls	.L25
 801:../Generated_Code/tasks.c ****                         {
 802:../Generated_Code/tasks.c ****                                 /* The tick count has overflowed since this function was
 803:../Generated_Code/tasks.c ****                                 lasted called.  In this case the only time we should ever
 804:../Generated_Code/tasks.c ****                                 actually delay is if the wake time has also     overflowed,
 805:../Generated_Code/tasks.c ****                                 and the wake time is greater than the tick time.  When this
 806:../Generated_Code/tasks.c ****                                 is the case it is as if neither time had overflowed. */
 807:../Generated_Code/tasks.c ****                                 if( ( xTimeToWake < *pxPreviousWakeTime ) && ( xTimeToWake > xConst
 499              		.loc 1 807 0
 500 0052 7B68     		ldr	r3, [r7, #4]
 501 0054 1A68     		ldr	r2, [r3]
 502 0056 FB68     		ldr	r3, [r7, #12]
 503 0058 9A42     		cmp	r2, r3
 504 005a 11D9     		bls	.L26
 505              		.loc 1 807 0 is_stmt 0
 506 005c FA68     		ldr	r2, [r7, #12]
 507 005e 3B69     		ldr	r3, [r7, #16]
 508 0060 9A42     		cmp	r2, r3
 509 0062 0DD9     		bls	.L26
 808:../Generated_Code/tasks.c ****                                 {
 809:../Generated_Code/tasks.c ****                                         xShouldDelay = pdTRUE;
 510              		.loc 1 809 0 is_stmt 1
 511 0064 0123     		mov	r3, #1
 512 0066 7B61     		str	r3, [r7, #20]
 513 0068 0AE0     		b	.L26
 514              	.L25:
 810:../Generated_Code/tasks.c ****                                 }
 811:../Generated_Code/tasks.c ****                                 else
 812:../Generated_Code/tasks.c ****                                 {
 813:../Generated_Code/tasks.c ****                                         mtCOVERAGE_TEST_MARKER();
 814:../Generated_Code/tasks.c ****                                 }
 815:../Generated_Code/tasks.c ****                         }
 816:../Generated_Code/tasks.c ****                         else
 817:../Generated_Code/tasks.c ****                         {
 818:../Generated_Code/tasks.c ****                                 /* The tick time has not overflowed.  In this case we will
 819:../Generated_Code/tasks.c ****                                 delay if either the wake time has overflowed, and/or the
 820:../Generated_Code/tasks.c ****                                 tick time is less than the wake time. */
 821:../Generated_Code/tasks.c ****                                 if( ( xTimeToWake < *pxPreviousWakeTime ) || ( xTimeToWake > xConst
 515              		.loc 1 821 0
 516 006a 7B68     		ldr	r3, [r7, #4]
 517 006c 1A68     		ldr	r2, [r3]
 518 006e FB68     		ldr	r3, [r7, #12]
 519 0070 9A42     		cmp	r2, r3
 520 0072 03D8     		bhi	.L27
 521              		.loc 1 821 0 is_stmt 0
 522 0074 FA68     		ldr	r2, [r7, #12]
 523 0076 3B69     		ldr	r3, [r7, #16]
 524 0078 9A42     		cmp	r2, r3
 525 007a 01D9     		bls	.L26
 526              	.L27:
 822:../Generated_Code/tasks.c ****                                 {
 823:../Generated_Code/tasks.c ****                                         xShouldDelay = pdTRUE;
 527              		.loc 1 823 0 is_stmt 1
 528 007c 0123     		mov	r3, #1
 529 007e 7B61     		str	r3, [r7, #20]
 530              	.L26:
 824:../Generated_Code/tasks.c ****                                 }
 825:../Generated_Code/tasks.c ****                                 else
 826:../Generated_Code/tasks.c ****                                 {
 827:../Generated_Code/tasks.c ****                                         mtCOVERAGE_TEST_MARKER();
 828:../Generated_Code/tasks.c ****                                 }
 829:../Generated_Code/tasks.c ****                         }
 830:../Generated_Code/tasks.c **** 
 831:../Generated_Code/tasks.c ****                         /* Update the wake time ready for the next call. */
 832:../Generated_Code/tasks.c ****                         *pxPreviousWakeTime = xTimeToWake;
 531              		.loc 1 832 0
 532 0080 7B68     		ldr	r3, [r7, #4]
 533 0082 FA68     		ldr	r2, [r7, #12]
 534 0084 1A60     		str	r2, [r3]
 833:../Generated_Code/tasks.c **** 
 834:../Generated_Code/tasks.c ****                         if( xShouldDelay != pdFALSE )
 535              		.loc 1 834 0
 536 0086 7B69     		ldr	r3, [r7, #20]
 537 0088 002B     		cmp	r3, #0
 538 008a 09D0     		beq	.L28
 835:../Generated_Code/tasks.c ****                         {
 836:../Generated_Code/tasks.c ****                                 traceTASK_DELAY_UNTIL();
 837:../Generated_Code/tasks.c **** 
 838:../Generated_Code/tasks.c ****                                 /* Remove the task from the ready list before adding it to the
 839:../Generated_Code/tasks.c ****                                 blocked list as the same list item is used for both lists. */
 840:../Generated_Code/tasks.c ****                                 if( uxListRemove( &( pxCurrentTCB->xGenericListItem ) ) == ( UBaseT
 539              		.loc 1 840 0
 540 008c 0C4B     		ldr	r3, .L30+8
 541 008e 1B68     		ldr	r3, [r3]
 542 0090 0433     		add	r3, r3, #4
 543 0092 181C     		mov	r0, r3
 544 0094 FFF7FEFF 		bl	uxListRemove
 841:../Generated_Code/tasks.c ****                                 {
 842:../Generated_Code/tasks.c ****                                         /* The current task must be in a ready list, so there is
 843:../Generated_Code/tasks.c ****                                         no need to check, and the port reset macro can be called
 844:../Generated_Code/tasks.c ****                                         directly. */
 845:../Generated_Code/tasks.c ****                                         portRESET_READY_PRIORITY( pxCurrentTCB->uxPriority, uxTopRe
 846:../Generated_Code/tasks.c ****                                 }
 847:../Generated_Code/tasks.c ****                                 else
 848:../Generated_Code/tasks.c ****                                 {
 849:../Generated_Code/tasks.c ****                                         mtCOVERAGE_TEST_MARKER();
 850:../Generated_Code/tasks.c ****                                 }
 851:../Generated_Code/tasks.c **** 
 852:../Generated_Code/tasks.c ****                                 prvAddCurrentTaskToDelayedList( xTimeToWake );
 545              		.loc 1 852 0
 546 0098 FB68     		ldr	r3, [r7, #12]
 547 009a 181C     		mov	r0, r3
 548 009c FFF7FEFF 		bl	_ZL30prvAddCurrentTaskToDelayedListm
 549              	.L28:
 550              	.LBE6:
 853:../Generated_Code/tasks.c ****                         }
 854:../Generated_Code/tasks.c ****                         else
 855:../Generated_Code/tasks.c ****                         {
 856:../Generated_Code/tasks.c ****                                 mtCOVERAGE_TEST_MARKER();
 857:../Generated_Code/tasks.c ****                         }
 858:../Generated_Code/tasks.c ****                 }
 859:../Generated_Code/tasks.c ****                 xAlreadyYielded = xTaskResumeAll();
 551              		.loc 1 859 0
 552 00a0 FFF7FEFF 		bl	xTaskResumeAll
 553 00a4 031C     		mov	r3, r0
 554 00a6 BB60     		str	r3, [r7, #8]
 860:../Generated_Code/tasks.c **** 
 861:../Generated_Code/tasks.c ****                 /* Force a reschedule if xTaskResumeAll has not already done so, we may
 862:../Generated_Code/tasks.c ****                 have put ourselves to sleep. */
 863:../Generated_Code/tasks.c ****                 if( xAlreadyYielded == pdFALSE )
 555              		.loc 1 863 0
 556 00a8 BB68     		ldr	r3, [r7, #8]
 557 00aa 002B     		cmp	r3, #0
 558 00ac 01D1     		bne	.L18
 864:../Generated_Code/tasks.c ****                 {
 865:../Generated_Code/tasks.c ****                         portYIELD_WITHIN_API();
 559              		.loc 1 865 0
 560 00ae FFF7FEFF 		bl	vPortYieldFromISR
 561              	.L18:
 562              	.LBE5:
 866:../Generated_Code/tasks.c ****                 }
 867:../Generated_Code/tasks.c ****                 else
 868:../Generated_Code/tasks.c ****                 {
 869:../Generated_Code/tasks.c ****                         mtCOVERAGE_TEST_MARKER();
 870:../Generated_Code/tasks.c ****                 }
 871:../Generated_Code/tasks.c ****         }
 563              		.loc 1 871 0
 564 00b2 BD46     		mov	sp, r7
 565 00b4 06B0     		add	sp, sp, #24
 566              		@ sp needed for prologue
 567 00b6 80BD     		pop	{r7, pc}
 568              	.L31:
 569              		.align	2
 570              	.L30:
 571 00b8 00000000 		.word	_ZL20uxSchedulerSuspended
 572 00bc 00000000 		.word	_ZL10xTickCount
 573 00c0 00000000 		.word	pxCurrentTCB
 574              		.cfi_endproc
 575              	.LFE10:
 577              		.section	.text.vTaskDelay,"ax",%progbits
 578              		.align	2
 579              		.global	vTaskDelay
 580              		.code	16
 581              		.thumb_func
 583              	vTaskDelay:
 584              	.LFB11:
 872:../Generated_Code/tasks.c **** 
 873:../Generated_Code/tasks.c **** #endif /* INCLUDE_vTaskDelayUntil */
 874:../Generated_Code/tasks.c **** /*-----------------------------------------------------------*/
 875:../Generated_Code/tasks.c **** 
 876:../Generated_Code/tasks.c **** #if ( INCLUDE_vTaskDelay == 1 )
 877:../Generated_Code/tasks.c **** 
 878:../Generated_Code/tasks.c ****         void vTaskDelay( const TickType_t xTicksToDelay )
 879:../Generated_Code/tasks.c ****         {
 585              		.loc 1 879 0
 586              		.cfi_startproc
 587 0000 80B5     		push	{r7, lr}
 588              	.LCFI6:
 589              		.cfi_def_cfa_offset 8
 590              		.cfi_offset 7, -8
 591              		.cfi_offset 14, -4
 592 0002 84B0     		sub	sp, sp, #16
 593              	.LCFI7:
 594              		.cfi_def_cfa_offset 24
 595 0004 00AF     		add	r7, sp, #0
 596              	.LCFI8:
 597              		.cfi_def_cfa_register 7
 598 0006 7860     		str	r0, [r7, #4]
 599              	.LBB7:
 880:../Generated_Code/tasks.c ****         TickType_t xTimeToWake;
 881:../Generated_Code/tasks.c ****         BaseType_t xAlreadyYielded = pdFALSE;
 600              		.loc 1 881 0
 601 0008 0023     		mov	r3, #0
 602 000a FB60     		str	r3, [r7, #12]
 882:../Generated_Code/tasks.c **** 
 883:../Generated_Code/tasks.c **** 
 884:../Generated_Code/tasks.c ****                 /* A delay time of zero just forces a reschedule. */
 885:../Generated_Code/tasks.c ****                 if( xTicksToDelay > ( TickType_t ) 0U )
 603              		.loc 1 885 0
 604 000c 7B68     		ldr	r3, [r7, #4]
 605 000e 002B     		cmp	r3, #0
 606 0010 1DD0     		beq	.L33
 886:../Generated_Code/tasks.c ****                 {
 887:../Generated_Code/tasks.c ****                         configASSERT( uxSchedulerSuspended == 0 );
 607              		.loc 1 887 0
 608 0012 134B     		ldr	r3, .L37
 609 0014 1B68     		ldr	r3, [r3]
 610 0016 5A1E     		sub	r2, r3, #1
 611 0018 9341     		sbc	r3, r3, r2
 612 001a DBB2     		uxtb	r3, r3
 613 001c 002B     		cmp	r3, #0
 614 001e 01D0     		beq	.L34
 615              		.loc 1 887 0 is_stmt 0
 616              	@ 887 "../Generated_Code/tasks.c" 1
 617 0020 72B6     		cpsid i
 618              	@ 0 "" 2
 619              		.code	16
 620              	.L35:
 621              		.loc 1 887 0
 622 0022 FEE7     		b	.L35
 623              	.L34:
 888:../Generated_Code/tasks.c ****                         vTaskSuspendAll();
 624              		.loc 1 888 0 is_stmt 1
 625 0024 FFF7FEFF 		bl	vTaskSuspendAll
 889:../Generated_Code/tasks.c ****                         {
 890:../Generated_Code/tasks.c ****                                 traceTASK_DELAY();
 891:../Generated_Code/tasks.c **** 
 892:../Generated_Code/tasks.c ****                                 /* A task that is removed from the event list while the
 893:../Generated_Code/tasks.c ****                                 scheduler is suspended will not get placed in the ready
 894:../Generated_Code/tasks.c ****                                 list or removed from the blocked list until the scheduler
 895:../Generated_Code/tasks.c ****                                 is resumed.
 896:../Generated_Code/tasks.c **** 
 897:../Generated_Code/tasks.c ****                                 This task cannot be in an event list as it is the currently
 898:../Generated_Code/tasks.c ****                                 executing task. */
 899:../Generated_Code/tasks.c **** 
 900:../Generated_Code/tasks.c ****                                 /* Calculate the time to wake - this may overflow but this is
 901:../Generated_Code/tasks.c ****                                 not a problem. */
 902:../Generated_Code/tasks.c ****                                 xTimeToWake = xTickCount + xTicksToDelay;
 626              		.loc 1 902 0
 627 0028 0E4B     		ldr	r3, .L37+4
 628 002a 1A68     		ldr	r2, [r3]
 629 002c 7B68     		ldr	r3, [r7, #4]
 630 002e D318     		add	r3, r2, r3
 631 0030 BB60     		str	r3, [r7, #8]
 903:../Generated_Code/tasks.c **** 
 904:../Generated_Code/tasks.c ****                                 /* We must remove ourselves from the ready list before adding
 905:../Generated_Code/tasks.c ****                                 ourselves to the blocked list as the same list item is used for
 906:../Generated_Code/tasks.c ****                                 both lists. */
 907:../Generated_Code/tasks.c ****                                 if( uxListRemove( &( pxCurrentTCB->xGenericListItem ) ) == ( UBaseT
 632              		.loc 1 907 0
 633 0032 0D4B     		ldr	r3, .L37+8
 634 0034 1B68     		ldr	r3, [r3]
 635 0036 0433     		add	r3, r3, #4
 636 0038 181C     		mov	r0, r3
 637 003a FFF7FEFF 		bl	uxListRemove
 908:../Generated_Code/tasks.c ****                                 {
 909:../Generated_Code/tasks.c ****                                         /* The current task must be in a ready list, so there is
 910:../Generated_Code/tasks.c ****                                         no need to check, and the port reset macro can be called
 911:../Generated_Code/tasks.c ****                                         directly. */
 912:../Generated_Code/tasks.c ****                                         portRESET_READY_PRIORITY( pxCurrentTCB->uxPriority, uxTopRe
 913:../Generated_Code/tasks.c ****                                 }
 914:../Generated_Code/tasks.c ****                                 else
 915:../Generated_Code/tasks.c ****                                 {
 916:../Generated_Code/tasks.c ****                                         mtCOVERAGE_TEST_MARKER();
 917:../Generated_Code/tasks.c ****                                 }
 918:../Generated_Code/tasks.c ****                                 prvAddCurrentTaskToDelayedList( xTimeToWake );
 638              		.loc 1 918 0
 639 003e BB68     		ldr	r3, [r7, #8]
 640 0040 181C     		mov	r0, r3
 641 0042 FFF7FEFF 		bl	_ZL30prvAddCurrentTaskToDelayedListm
 919:../Generated_Code/tasks.c ****                         }
 920:../Generated_Code/tasks.c ****                         xAlreadyYielded = xTaskResumeAll();
 642              		.loc 1 920 0
 643 0046 FFF7FEFF 		bl	xTaskResumeAll
 644 004a 031C     		mov	r3, r0
 645 004c FB60     		str	r3, [r7, #12]
 646              	.L33:
 921:../Generated_Code/tasks.c ****                 }
 922:../Generated_Code/tasks.c ****                 else
 923:../Generated_Code/tasks.c ****                 {
 924:../Generated_Code/tasks.c ****                         mtCOVERAGE_TEST_MARKER();
 925:../Generated_Code/tasks.c ****                 }
 926:../Generated_Code/tasks.c **** 
 927:../Generated_Code/tasks.c ****                 /* Force a reschedule if xTaskResumeAll has not already done so, we may
 928:../Generated_Code/tasks.c ****                 have put ourselves to sleep. */
 929:../Generated_Code/tasks.c ****                 if( xAlreadyYielded == pdFALSE )
 647              		.loc 1 929 0
 648 004e FB68     		ldr	r3, [r7, #12]
 649 0050 002B     		cmp	r3, #0
 650 0052 01D1     		bne	.L32
 930:../Generated_Code/tasks.c ****                 {
 931:../Generated_Code/tasks.c ****                         portYIELD_WITHIN_API();
 651              		.loc 1 931 0
 652 0054 FFF7FEFF 		bl	vPortYieldFromISR
 653              	.L32:
 654              	.LBE7:
 932:../Generated_Code/tasks.c ****                 }
 933:../Generated_Code/tasks.c ****                 else
 934:../Generated_Code/tasks.c ****                 {
 935:../Generated_Code/tasks.c ****                         mtCOVERAGE_TEST_MARKER();
 936:../Generated_Code/tasks.c ****                 }
 937:../Generated_Code/tasks.c ****         }
 655              		.loc 1 937 0
 656 0058 BD46     		mov	sp, r7
 657 005a 04B0     		add	sp, sp, #16
 658              		@ sp needed for prologue
 659 005c 80BD     		pop	{r7, pc}
 660              	.L38:
 661 005e C046     		.align	2
 662              	.L37:
 663 0060 00000000 		.word	_ZL20uxSchedulerSuspended
 664 0064 00000000 		.word	_ZL10xTickCount
 665 0068 00000000 		.word	pxCurrentTCB
 666              		.cfi_endproc
 667              	.LFE11:
 669              		.section	.text.uxTaskPriorityGet,"ax",%progbits
 670              		.align	2
 671              		.global	uxTaskPriorityGet
 672              		.code	16
 673              		.thumb_func
 675              	uxTaskPriorityGet:
 676              	.LFB12:
 938:../Generated_Code/tasks.c **** 
 939:../Generated_Code/tasks.c **** #endif /* INCLUDE_vTaskDelay */
 940:../Generated_Code/tasks.c **** /*-----------------------------------------------------------*/
 941:../Generated_Code/tasks.c **** 
 942:../Generated_Code/tasks.c **** #if ( INCLUDE_eTaskGetState == 1 )
 943:../Generated_Code/tasks.c **** 
 944:../Generated_Code/tasks.c ****         eTaskState eTaskGetState( TaskHandle_t xTask )
 945:../Generated_Code/tasks.c ****         {
 946:../Generated_Code/tasks.c ****         eTaskState eReturn;
 947:../Generated_Code/tasks.c ****         List_t *pxStateList;
 948:../Generated_Code/tasks.c ****         const TCB_t * const pxTCB = ( TCB_t * ) xTask;
 949:../Generated_Code/tasks.c **** 
 950:../Generated_Code/tasks.c ****                 configASSERT( pxTCB );
 951:../Generated_Code/tasks.c **** 
 952:../Generated_Code/tasks.c ****                 if( pxTCB == pxCurrentTCB )
 953:../Generated_Code/tasks.c ****                 {
 954:../Generated_Code/tasks.c ****                         /* The task calling this function is querying its own state. */
 955:../Generated_Code/tasks.c ****                         eReturn = eRunning;
 956:../Generated_Code/tasks.c ****                 }
 957:../Generated_Code/tasks.c ****                 else
 958:../Generated_Code/tasks.c ****                 {
 959:../Generated_Code/tasks.c ****                         taskENTER_CRITICAL();
 960:../Generated_Code/tasks.c ****                         {
 961:../Generated_Code/tasks.c ****                                 pxStateList = ( List_t * ) listLIST_ITEM_CONTAINER( &( pxTCB->xGene
 962:../Generated_Code/tasks.c ****                         }
 963:../Generated_Code/tasks.c ****                         taskEXIT_CRITICAL();
 964:../Generated_Code/tasks.c **** 
 965:../Generated_Code/tasks.c ****                         if( ( pxStateList == pxDelayedTaskList ) || ( pxStateList == pxOverflowDela
 966:../Generated_Code/tasks.c ****                         {
 967:../Generated_Code/tasks.c ****                                 /* The task being queried is referenced from one of the Blocked
 968:../Generated_Code/tasks.c ****                                 lists. */
 969:../Generated_Code/tasks.c ****                                 eReturn = eBlocked;
 970:../Generated_Code/tasks.c ****                         }
 971:../Generated_Code/tasks.c **** 
 972:../Generated_Code/tasks.c ****                         #if ( INCLUDE_vTaskSuspend == 1 )
 973:../Generated_Code/tasks.c ****                                 else if( pxStateList == &xSuspendedTaskList )
 974:../Generated_Code/tasks.c ****                                 {
 975:../Generated_Code/tasks.c ****                                         /* The task being queried is referenced from the suspended
 976:../Generated_Code/tasks.c ****                                         list.  Is it genuinely suspended or is it block
 977:../Generated_Code/tasks.c ****                                         indefinitely? */
 978:../Generated_Code/tasks.c ****                                         if( listLIST_ITEM_CONTAINER( &( pxTCB->xEventListItem ) ) =
 979:../Generated_Code/tasks.c ****                                         {
 980:../Generated_Code/tasks.c ****                                                 eReturn = eSuspended;
 981:../Generated_Code/tasks.c ****                                         }
 982:../Generated_Code/tasks.c ****                                         else
 983:../Generated_Code/tasks.c ****                                         {
 984:../Generated_Code/tasks.c ****                                                 eReturn = eBlocked;
 985:../Generated_Code/tasks.c ****                                         }
 986:../Generated_Code/tasks.c ****                                 }
 987:../Generated_Code/tasks.c ****                         #endif
 988:../Generated_Code/tasks.c **** 
 989:../Generated_Code/tasks.c ****                         #if ( INCLUDE_vTaskDelete == 1 )
 990:../Generated_Code/tasks.c ****                                 else if( pxStateList == &xTasksWaitingTermination )
 991:../Generated_Code/tasks.c ****                                 {
 992:../Generated_Code/tasks.c ****                                         /* The task being queried is referenced from the deleted
 993:../Generated_Code/tasks.c ****                                         tasks list. */
 994:../Generated_Code/tasks.c ****                                         eReturn = eDeleted;
 995:../Generated_Code/tasks.c ****                                 }
 996:../Generated_Code/tasks.c ****                         #endif
 997:../Generated_Code/tasks.c **** 
 998:../Generated_Code/tasks.c ****                         else
 999:../Generated_Code/tasks.c ****                         {
1000:../Generated_Code/tasks.c ****                                 /* If the task is not in any other state, it must be in the
1001:../Generated_Code/tasks.c ****                                 Ready (including pending ready) state. */
1002:../Generated_Code/tasks.c ****                                 eReturn = eReady;
1003:../Generated_Code/tasks.c ****                         }
1004:../Generated_Code/tasks.c ****                 }
1005:../Generated_Code/tasks.c **** 
1006:../Generated_Code/tasks.c ****                 return eReturn;
1007:../Generated_Code/tasks.c ****         }
1008:../Generated_Code/tasks.c **** 
1009:../Generated_Code/tasks.c **** #endif /* INCLUDE_eTaskGetState */
1010:../Generated_Code/tasks.c **** /*-----------------------------------------------------------*/
1011:../Generated_Code/tasks.c **** 
1012:../Generated_Code/tasks.c **** #if ( INCLUDE_uxTaskPriorityGet == 1 )
1013:../Generated_Code/tasks.c **** 
1014:../Generated_Code/tasks.c ****         UBaseType_t uxTaskPriorityGet( TaskHandle_t xTask )
1015:../Generated_Code/tasks.c ****         {
 677              		.loc 1 1015 0
 678              		.cfi_startproc
 679 0000 80B5     		push	{r7, lr}
 680              	.LCFI9:
 681              		.cfi_def_cfa_offset 8
 682              		.cfi_offset 7, -8
 683              		.cfi_offset 14, -4
 684 0002 84B0     		sub	sp, sp, #16
 685              	.LCFI10:
 686              		.cfi_def_cfa_offset 24
 687 0004 00AF     		add	r7, sp, #0
 688              	.LCFI11:
 689              		.cfi_def_cfa_register 7
 690 0006 7860     		str	r0, [r7, #4]
 691              	.LBB8:
1016:../Generated_Code/tasks.c ****         TCB_t *pxTCB;
1017:../Generated_Code/tasks.c ****         UBaseType_t uxReturn;
1018:../Generated_Code/tasks.c **** 
1019:../Generated_Code/tasks.c ****                 taskENTER_CRITICAL();
 692              		.loc 1 1019 0
 693 0008 FFF7FEFF 		bl	vPortEnterCritical
1020:../Generated_Code/tasks.c ****                 {
1021:../Generated_Code/tasks.c ****                         /* If null is passed in here then we are changing the
1022:../Generated_Code/tasks.c ****                         priority of the calling function. */
1023:../Generated_Code/tasks.c ****                         pxTCB = prvGetTCBFromHandle( xTask );
 694              		.loc 1 1023 0
 695 000c 7B68     		ldr	r3, [r7, #4]
 696 000e 002B     		cmp	r3, #0
 697 0010 02D1     		bne	.L40
 698              		.loc 1 1023 0 is_stmt 0
 699 0012 074B     		ldr	r3, .L43
 700 0014 1B68     		ldr	r3, [r3]
 701 0016 00E0     		b	.L41
 702              	.L40:
 703              		.loc 1 1023 0
 704 0018 7B68     		ldr	r3, [r7, #4]
 705              	.L41:
 706              		.loc 1 1023 0
 707 001a FB60     		str	r3, [r7, #12]
1024:../Generated_Code/tasks.c ****                         uxReturn = pxTCB->uxPriority;
 708              		.loc 1 1024 0 is_stmt 1
 709 001c FB68     		ldr	r3, [r7, #12]
 710 001e DB6A     		ldr	r3, [r3, #44]
 711 0020 BB60     		str	r3, [r7, #8]
1025:../Generated_Code/tasks.c ****                 }
1026:../Generated_Code/tasks.c ****                 taskEXIT_CRITICAL();
 712              		.loc 1 1026 0
 713 0022 FFF7FEFF 		bl	vPortExitCritical
1027:../Generated_Code/tasks.c **** 
1028:../Generated_Code/tasks.c ****                 return uxReturn;
 714              		.loc 1 1028 0
 715 0026 BB68     		ldr	r3, [r7, #8]
 716              	.LBE8:
1029:../Generated_Code/tasks.c ****         }
 717              		.loc 1 1029 0
 718 0028 181C     		mov	r0, r3
 719 002a BD46     		mov	sp, r7
 720 002c 04B0     		add	sp, sp, #16
 721              		@ sp needed for prologue
 722 002e 80BD     		pop	{r7, pc}
 723              	.L44:
 724              		.align	2
 725              	.L43:
 726 0030 00000000 		.word	pxCurrentTCB
 727              		.cfi_endproc
 728              	.LFE12:
 730              		.section	.text.vTaskPrioritySet,"ax",%progbits
 731              		.align	2
 732              		.global	vTaskPrioritySet
 733              		.code	16
 734              		.thumb_func
 736              	vTaskPrioritySet:
 737              	.LFB13:
1030:../Generated_Code/tasks.c **** 
1031:../Generated_Code/tasks.c **** #endif /* INCLUDE_uxTaskPriorityGet */
1032:../Generated_Code/tasks.c **** /*-----------------------------------------------------------*/
1033:../Generated_Code/tasks.c **** 
1034:../Generated_Code/tasks.c **** #if ( INCLUDE_vTaskPrioritySet == 1 )
1035:../Generated_Code/tasks.c **** 
1036:../Generated_Code/tasks.c ****         void vTaskPrioritySet( TaskHandle_t xTask, UBaseType_t uxNewPriority )
1037:../Generated_Code/tasks.c ****         {
 738              		.loc 1 1037 0
 739              		.cfi_startproc
 740 0000 80B5     		push	{r7, lr}
 741              	.LCFI12:
 742              		.cfi_def_cfa_offset 8
 743              		.cfi_offset 7, -8
 744              		.cfi_offset 14, -4
 745 0002 86B0     		sub	sp, sp, #24
 746              	.LCFI13:
 747              		.cfi_def_cfa_offset 32
 748 0004 00AF     		add	r7, sp, #0
 749              	.LCFI14:
 750              		.cfi_def_cfa_register 7
 751 0006 7860     		str	r0, [r7, #4]
 752 0008 3960     		str	r1, [r7]
 753              	.LBB9:
1038:../Generated_Code/tasks.c ****         TCB_t *pxTCB;
1039:../Generated_Code/tasks.c ****         UBaseType_t uxCurrentBasePriority, uxPriorityUsedOnEntry;
1040:../Generated_Code/tasks.c ****         BaseType_t xYieldRequired = pdFALSE;
 754              		.loc 1 1040 0
 755 000a 0023     		mov	r3, #0
 756 000c 7B61     		str	r3, [r7, #20]
1041:../Generated_Code/tasks.c **** 
1042:../Generated_Code/tasks.c ****                 configASSERT( ( uxNewPriority < configMAX_PRIORITIES ) );
 757              		.loc 1 1042 0
 758 000e 3B68     		ldr	r3, [r7]
 759 0010 052B     		cmp	r3, #5
 760 0012 01D9     		bls	.L46
 761              		.loc 1 1042 0 is_stmt 0
 762              	@ 1042 "../Generated_Code/tasks.c" 1
 763 0014 72B6     		cpsid i
 764              	@ 0 "" 2
 765              		.code	16
 766              	.L47:
 767              		.loc 1 1042 0
 768 0016 FEE7     		b	.L47
 769              	.L46:
1043:../Generated_Code/tasks.c **** 
1044:../Generated_Code/tasks.c ****                 /* Ensure the new priority is valid. */
1045:../Generated_Code/tasks.c ****                 if( uxNewPriority >= ( UBaseType_t ) configMAX_PRIORITIES )
 770              		.loc 1 1045 0 is_stmt 1
 771 0018 3B68     		ldr	r3, [r7]
 772 001a 052B     		cmp	r3, #5
 773 001c 01D9     		bls	.L48
1046:../Generated_Code/tasks.c ****                 {
1047:../Generated_Code/tasks.c ****                         uxNewPriority = ( UBaseType_t ) configMAX_PRIORITIES - ( UBaseType_t ) 1U;
 774              		.loc 1 1047 0
 775 001e 0523     		mov	r3, #5
 776 0020 3B60     		str	r3, [r7]
 777              	.L48:
1048:../Generated_Code/tasks.c ****                 }
1049:../Generated_Code/tasks.c ****                 else
1050:../Generated_Code/tasks.c ****                 {
1051:../Generated_Code/tasks.c ****                         mtCOVERAGE_TEST_MARKER();
1052:../Generated_Code/tasks.c ****                 }
1053:../Generated_Code/tasks.c **** 
1054:../Generated_Code/tasks.c ****                 taskENTER_CRITICAL();
 778              		.loc 1 1054 0
 779 0022 FFF7FEFF 		bl	vPortEnterCritical
1055:../Generated_Code/tasks.c ****                 {
1056:../Generated_Code/tasks.c ****                         /* If null is passed in here then it is the priority of the calling
1057:../Generated_Code/tasks.c ****                         task that is being changed. */
1058:../Generated_Code/tasks.c ****                         pxTCB = prvGetTCBFromHandle( xTask );
 780              		.loc 1 1058 0
 781 0026 7B68     		ldr	r3, [r7, #4]
 782 0028 002B     		cmp	r3, #0
 783 002a 02D1     		bne	.L49
 784              		.loc 1 1058 0 is_stmt 0
 785 002c 424B     		ldr	r3, .L60
 786 002e 1B68     		ldr	r3, [r3]
 787 0030 00E0     		b	.L50
 788              	.L49:
 789              		.loc 1 1058 0
 790 0032 7B68     		ldr	r3, [r7, #4]
 791              	.L50:
 792              		.loc 1 1058 0
 793 0034 3B61     		str	r3, [r7, #16]
1059:../Generated_Code/tasks.c **** 
1060:../Generated_Code/tasks.c ****                         traceTASK_PRIORITY_SET( pxTCB, uxNewPriority );
1061:../Generated_Code/tasks.c **** 
1062:../Generated_Code/tasks.c ****                         #if ( configUSE_MUTEXES == 1 )
1063:../Generated_Code/tasks.c ****                         {
1064:../Generated_Code/tasks.c ****                                 uxCurrentBasePriority = pxTCB->uxBasePriority;
 794              		.loc 1 1064 0 is_stmt 1
 795 0036 3B69     		ldr	r3, [r7, #16]
 796 0038 1B6D     		ldr	r3, [r3, #80]
 797 003a FB60     		str	r3, [r7, #12]
1065:../Generated_Code/tasks.c ****                         }
1066:../Generated_Code/tasks.c ****                         #else
1067:../Generated_Code/tasks.c ****                         {
1068:../Generated_Code/tasks.c ****                                 uxCurrentBasePriority = pxTCB->uxPriority;
1069:../Generated_Code/tasks.c ****                         }
1070:../Generated_Code/tasks.c ****                         #endif
1071:../Generated_Code/tasks.c **** 
1072:../Generated_Code/tasks.c ****                         if( uxCurrentBasePriority != uxNewPriority )
 798              		.loc 1 1072 0
 799 003c FA68     		ldr	r2, [r7, #12]
 800 003e 3B68     		ldr	r3, [r7]
 801 0040 9A42     		cmp	r2, r3
 802 0042 00D1     		bne	.LCB575
 803 0044 72E0     		b	.L51	@long jump
 804              	.LCB575:
1073:../Generated_Code/tasks.c ****                         {
1074:../Generated_Code/tasks.c ****                                 /* The priority change may have readied a task of higher
1075:../Generated_Code/tasks.c ****                                 priority than the calling task. */
1076:../Generated_Code/tasks.c ****                                 if( uxNewPriority > uxCurrentBasePriority )
 805              		.loc 1 1076 0
 806 0046 3A68     		ldr	r2, [r7]
 807 0048 FB68     		ldr	r3, [r7, #12]
 808 004a 9A42     		cmp	r2, r3
 809 004c 15D9     		bls	.L52
1077:../Generated_Code/tasks.c ****                                 {
1078:../Generated_Code/tasks.c ****                                         if( pxTCB != pxCurrentTCB )
 810              		.loc 1 1078 0
 811 004e 3A4B     		ldr	r3, .L60
 812 0050 1B68     		ldr	r3, [r3]
 813 0052 3A69     		ldr	r2, [r7, #16]
 814 0054 D31A     		sub	r3, r2, r3
 815 0056 5A1E     		sub	r2, r3, #1
 816 0058 9341     		sbc	r3, r3, r2
 817 005a DBB2     		uxtb	r3, r3
 818 005c 002B     		cmp	r3, #0
 819 005e 17D0     		beq	.L53
1079:../Generated_Code/tasks.c ****                                         {
1080:../Generated_Code/tasks.c ****                                                 /* The priority of a task other than the currently
1081:../Generated_Code/tasks.c ****                                                 running task is being raised.  Is the priority bein
1082:../Generated_Code/tasks.c ****                                                 raised above that of the running task? */
1083:../Generated_Code/tasks.c ****                                                 if( uxNewPriority >= pxCurrentTCB->uxPriority )
 820              		.loc 1 1083 0
 821 0060 354B     		ldr	r3, .L60
 822 0062 1B68     		ldr	r3, [r3]
 823 0064 DA6A     		ldr	r2, [r3, #44]
 824 0066 3968     		ldr	r1, [r7]
 825 0068 0023     		mov	r3, #0
 826 006a 9142     		cmp	r1, r2
 827 006c 5B41     		adc	r3, r3, r3
 828 006e DBB2     		uxtb	r3, r3
 829 0070 002B     		cmp	r3, #0
 830 0072 0DD0     		beq	.L53
1084:../Generated_Code/tasks.c ****                                                 {
1085:../Generated_Code/tasks.c ****                                                         xYieldRequired = pdTRUE;
 831              		.loc 1 1085 0
 832 0074 0123     		mov	r3, #1
 833 0076 7B61     		str	r3, [r7, #20]
 834 0078 0AE0     		b	.L53
 835              	.L52:
1086:../Generated_Code/tasks.c ****                                                 }
1087:../Generated_Code/tasks.c ****                                                 else
1088:../Generated_Code/tasks.c ****                                                 {
1089:../Generated_Code/tasks.c ****                                                         mtCOVERAGE_TEST_MARKER();
1090:../Generated_Code/tasks.c ****                                                 }
1091:../Generated_Code/tasks.c ****                                         }
1092:../Generated_Code/tasks.c ****                                         else
1093:../Generated_Code/tasks.c ****                                         {
1094:../Generated_Code/tasks.c ****                                                 /* The priority of the running task is being raised
1095:../Generated_Code/tasks.c ****                                                 but the running task must already be the highest
1096:../Generated_Code/tasks.c ****                                                 priority task able to run so no yield is required. 
1097:../Generated_Code/tasks.c ****                                         }
1098:../Generated_Code/tasks.c ****                                 }
1099:../Generated_Code/tasks.c ****                                 else if( pxTCB == pxCurrentTCB )
 836              		.loc 1 1099 0
 837 007a 2F4B     		ldr	r3, .L60
 838 007c 1B68     		ldr	r3, [r3]
 839 007e 3A69     		ldr	r2, [r7, #16]
 840 0080 D31A     		sub	r3, r2, r3
 841 0082 5A42     		neg	r2, r3
 842 0084 5341     		adc	r3, r3, r2
 843 0086 DBB2     		uxtb	r3, r3
 844 0088 002B     		cmp	r3, #0
 845 008a 01D0     		beq	.L53
1100:../Generated_Code/tasks.c ****                                 {
1101:../Generated_Code/tasks.c ****                                         /* Setting the priority of the running task down means
1102:../Generated_Code/tasks.c ****                                         there may now be another task of higher priority that
1103:../Generated_Code/tasks.c ****                                         is ready to execute. */
1104:../Generated_Code/tasks.c ****                                         xYieldRequired = pdTRUE;
 846              		.loc 1 1104 0
 847 008c 0123     		mov	r3, #1
 848 008e 7B61     		str	r3, [r7, #20]
 849              	.L53:
1105:../Generated_Code/tasks.c ****                                 }
1106:../Generated_Code/tasks.c ****                                 else
1107:../Generated_Code/tasks.c ****                                 {
1108:../Generated_Code/tasks.c ****                                         /* Setting the priority of any other task down does not
1109:../Generated_Code/tasks.c ****                                         require a yield as the running task must be above the
1110:../Generated_Code/tasks.c ****                                         new priority of the task being modified. */
1111:../Generated_Code/tasks.c ****                                 }
1112:../Generated_Code/tasks.c **** 
1113:../Generated_Code/tasks.c ****                                 /* Remember the ready list the task might be referenced from
1114:../Generated_Code/tasks.c ****                                 before its uxPriority member is changed so the
1115:../Generated_Code/tasks.c ****                                 taskRESET_READY_PRIORITY() macro can function correctly. */
1116:../Generated_Code/tasks.c ****                                 uxPriorityUsedOnEntry = pxTCB->uxPriority;
 850              		.loc 1 1116 0
 851 0090 3B69     		ldr	r3, [r7, #16]
 852 0092 DB6A     		ldr	r3, [r3, #44]
 853 0094 BB60     		str	r3, [r7, #8]
1117:../Generated_Code/tasks.c **** 
1118:../Generated_Code/tasks.c ****                                 #if ( configUSE_MUTEXES == 1 )
1119:../Generated_Code/tasks.c ****                                 {
1120:../Generated_Code/tasks.c ****                                         /* Only change the priority being used if the task is not
1121:../Generated_Code/tasks.c ****                                         currently using an inherited priority. */
1122:../Generated_Code/tasks.c ****                                         if( pxTCB->uxBasePriority == pxTCB->uxPriority )
 854              		.loc 1 1122 0
 855 0096 3B69     		ldr	r3, [r7, #16]
 856 0098 1A6D     		ldr	r2, [r3, #80]
 857 009a 3B69     		ldr	r3, [r7, #16]
 858 009c DB6A     		ldr	r3, [r3, #44]
 859 009e 9A42     		cmp	r2, r3
 860 00a0 02D1     		bne	.L54
1123:../Generated_Code/tasks.c ****                                         {
1124:../Generated_Code/tasks.c ****                                                 pxTCB->uxPriority = uxNewPriority;
 861              		.loc 1 1124 0
 862 00a2 3B69     		ldr	r3, [r7, #16]
 863 00a4 3A68     		ldr	r2, [r7]
 864 00a6 DA62     		str	r2, [r3, #44]
 865              	.L54:
1125:../Generated_Code/tasks.c ****                                         }
1126:../Generated_Code/tasks.c ****                                         else
1127:../Generated_Code/tasks.c ****                                         {
1128:../Generated_Code/tasks.c ****                                                 mtCOVERAGE_TEST_MARKER();
1129:../Generated_Code/tasks.c ****                                         }
1130:../Generated_Code/tasks.c **** 
1131:../Generated_Code/tasks.c ****                                         /* The base priority gets set whatever. */
1132:../Generated_Code/tasks.c ****                                         pxTCB->uxBasePriority = uxNewPriority;
 866              		.loc 1 1132 0
 867 00a8 3B69     		ldr	r3, [r7, #16]
 868 00aa 3A68     		ldr	r2, [r7]
 869 00ac 1A65     		str	r2, [r3, #80]
1133:../Generated_Code/tasks.c ****                                 }
1134:../Generated_Code/tasks.c ****                                 #else
1135:../Generated_Code/tasks.c ****                                 {
1136:../Generated_Code/tasks.c ****                                         pxTCB->uxPriority = uxNewPriority;
1137:../Generated_Code/tasks.c ****                                 }
1138:../Generated_Code/tasks.c ****                                 #endif
1139:../Generated_Code/tasks.c **** 
1140:../Generated_Code/tasks.c ****                                 /* Only reset the event list item value if the value is not
1141:../Generated_Code/tasks.c ****                                 being used for anything else. */
1142:../Generated_Code/tasks.c ****                                 if( ( listGET_LIST_ITEM_VALUE( &( pxTCB->xEventListItem ) ) & taskE
 870              		.loc 1 1142 0
 871 00ae 3B69     		ldr	r3, [r7, #16]
 872 00b0 9B69     		ldr	r3, [r3, #24]
 873 00b2 002B     		cmp	r3, #0
 874 00b4 04DB     		blt	.L55
1143:../Generated_Code/tasks.c ****                                 {
1144:../Generated_Code/tasks.c ****                                         listSET_LIST_ITEM_VALUE( &( pxTCB->xEventListItem ), ( ( Ti
 875              		.loc 1 1144 0
 876 00b6 3B68     		ldr	r3, [r7]
 877 00b8 0622     		mov	r2, #6
 878 00ba D21A     		sub	r2, r2, r3
 879 00bc 3B69     		ldr	r3, [r7, #16]
 880 00be 9A61     		str	r2, [r3, #24]
 881              	.L55:
1145:../Generated_Code/tasks.c ****                                 }
1146:../Generated_Code/tasks.c ****                                 else
1147:../Generated_Code/tasks.c ****                                 {
1148:../Generated_Code/tasks.c ****                                         mtCOVERAGE_TEST_MARKER();
1149:../Generated_Code/tasks.c ****                                 }
1150:../Generated_Code/tasks.c **** 
1151:../Generated_Code/tasks.c ****                                 /* If the task is in the blocked or suspended list we need do
1152:../Generated_Code/tasks.c ****                                 nothing more than change it's priority variable. However, if
1153:../Generated_Code/tasks.c ****                                 the task is in a ready list it needs to be removed and placed
1154:../Generated_Code/tasks.c ****                                 in the list appropriate to its new priority. */
1155:../Generated_Code/tasks.c ****                                 if( listIS_CONTAINED_WITHIN( &( pxReadyTasksLists[ uxPriorityUsedOn
 882              		.loc 1 1155 0
 883 00c0 3B69     		ldr	r3, [r7, #16]
 884 00c2 5969     		ldr	r1, [r3, #20]
 885 00c4 BA68     		ldr	r2, [r7, #8]
 886 00c6 131C     		mov	r3, r2
 887 00c8 9B00     		lsl	r3, r3, #2
 888 00ca 9B18     		add	r3, r3, r2
 889 00cc 9B00     		lsl	r3, r3, #2
 890 00ce 1B4A     		ldr	r2, .L60+4
 891 00d0 9B18     		add	r3, r3, r2
 892 00d2 9942     		cmp	r1, r3
 893 00d4 01D1     		bne	.L56
 894              		.loc 1 1155 0 is_stmt 0
 895 00d6 0123     		mov	r3, #1
 896 00d8 00E0     		b	.L57
 897              	.L56:
 898              		.loc 1 1155 0
 899 00da 0023     		mov	r3, #0
 900              	.L57:
 901              		.loc 1 1155 0
 902 00dc 002B     		cmp	r3, #0
 903 00de 20D0     		beq	.L58
1156:../Generated_Code/tasks.c ****                                 {
1157:../Generated_Code/tasks.c ****                                         /* The task is currently in its ready list - remove before 
1158:../Generated_Code/tasks.c ****                                         it to it's new ready list.  As we are in a critical section
1159:../Generated_Code/tasks.c ****                                         can do this even if the scheduler is suspended. */
1160:../Generated_Code/tasks.c ****                                         if( uxListRemove( &( pxTCB->xGenericListItem ) ) == ( UBase
 904              		.loc 1 1160 0 is_stmt 1
 905 00e0 3B69     		ldr	r3, [r7, #16]
 906 00e2 0433     		add	r3, r3, #4
 907 00e4 181C     		mov	r0, r3
 908 00e6 FFF7FEFF 		bl	uxListRemove
1161:../Generated_Code/tasks.c ****                                         {
1162:../Generated_Code/tasks.c ****                                                 /* It is known that the task is in its ready list s
1163:../Generated_Code/tasks.c ****                                                 there is no need to check again and the port level
1164:../Generated_Code/tasks.c ****                                                 reset macro can be called directly. */
1165:../Generated_Code/tasks.c ****                                                 portRESET_READY_PRIORITY( uxPriorityUsedOnEntry, ux
1166:../Generated_Code/tasks.c ****                                         }
1167:../Generated_Code/tasks.c ****                                         else
1168:../Generated_Code/tasks.c ****                                         {
1169:../Generated_Code/tasks.c ****                                                 mtCOVERAGE_TEST_MARKER();
1170:../Generated_Code/tasks.c ****                                         }
1171:../Generated_Code/tasks.c ****                                         prvAddTaskToReadyList( pxTCB );
 909              		.loc 1 1171 0
 910 00ea 3B69     		ldr	r3, [r7, #16]
 911 00ec DA6A     		ldr	r2, [r3, #44]
 912 00ee 144B     		ldr	r3, .L60+8
 913 00f0 1B68     		ldr	r3, [r3]
 914 00f2 9342     		cmp	r3, r2
 915 00f4 9B41     		sbc	r3, r3, r3
 916 00f6 5B42     		neg	r3, r3
 917 00f8 DBB2     		uxtb	r3, r3
 918 00fa 002B     		cmp	r3, #0
 919 00fc 03D0     		beq	.L59
 920              		.loc 1 1171 0 is_stmt 0
 921 00fe 3B69     		ldr	r3, [r7, #16]
 922 0100 DA6A     		ldr	r2, [r3, #44]
 923 0102 0F4B     		ldr	r3, .L60+8
 924 0104 1A60     		str	r2, [r3]
 925              	.L59:
 926              		.loc 1 1171 0
 927 0106 3B69     		ldr	r3, [r7, #16]
 928 0108 DA6A     		ldr	r2, [r3, #44]
 929 010a 131C     		mov	r3, r2
 930 010c 9B00     		lsl	r3, r3, #2
 931 010e 9B18     		add	r3, r3, r2
 932 0110 9B00     		lsl	r3, r3, #2
 933 0112 0A4A     		ldr	r2, .L60+4
 934 0114 9A18     		add	r2, r3, r2
 935 0116 3B69     		ldr	r3, [r7, #16]
 936 0118 0433     		add	r3, r3, #4
 937 011a 101C     		mov	r0, r2
 938 011c 191C     		mov	r1, r3
 939 011e FFF7FEFF 		bl	vListInsertEnd
 940              	.L58:
1172:../Generated_Code/tasks.c ****                                 }
1173:../Generated_Code/tasks.c ****                                 else
1174:../Generated_Code/tasks.c ****                                 {
1175:../Generated_Code/tasks.c ****                                         mtCOVERAGE_TEST_MARKER();
1176:../Generated_Code/tasks.c ****                                 }
1177:../Generated_Code/tasks.c **** 
1178:../Generated_Code/tasks.c ****                                 if( xYieldRequired == pdTRUE )
 941              		.loc 1 1178 0 is_stmt 1
 942 0122 7B69     		ldr	r3, [r7, #20]
 943 0124 012B     		cmp	r3, #1
 944 0126 01D1     		bne	.L51
1179:../Generated_Code/tasks.c ****                                 {
1180:../Generated_Code/tasks.c ****                                         taskYIELD_IF_USING_PREEMPTION();
 945              		.loc 1 1180 0
 946 0128 FFF7FEFF 		bl	vPortYieldFromISR
 947              	.L51:
1181:../Generated_Code/tasks.c ****                                 }
1182:../Generated_Code/tasks.c ****                                 else
1183:../Generated_Code/tasks.c ****                                 {
1184:../Generated_Code/tasks.c ****                                         mtCOVERAGE_TEST_MARKER();
1185:../Generated_Code/tasks.c ****                                 }
1186:../Generated_Code/tasks.c **** 
1187:../Generated_Code/tasks.c ****                                 /* Remove compiler warning about unused variables when the port
1188:../Generated_Code/tasks.c ****                                 optimised task selection is not being used. */
1189:../Generated_Code/tasks.c ****                                 ( void ) uxPriorityUsedOnEntry;
1190:../Generated_Code/tasks.c ****                         }
1191:../Generated_Code/tasks.c ****                 }
1192:../Generated_Code/tasks.c ****                 taskEXIT_CRITICAL();
 948              		.loc 1 1192 0
 949 012c FFF7FEFF 		bl	vPortExitCritical
 950              	.LBE9:
1193:../Generated_Code/tasks.c ****         }
 951              		.loc 1 1193 0
 952 0130 BD46     		mov	sp, r7
 953 0132 06B0     		add	sp, sp, #24
 954              		@ sp needed for prologue
 955 0134 80BD     		pop	{r7, pc}
 956              	.L61:
 957 0136 C046     		.align	2
 958              	.L60:
 959 0138 00000000 		.word	pxCurrentTCB
 960 013c 00000000 		.word	_ZL17pxReadyTasksLists
 961 0140 00000000 		.word	_ZL18uxTopReadyPriority
 962              		.cfi_endproc
 963              	.LFE13:
 965              		.section	.text.vTaskSuspend,"ax",%progbits
 966              		.align	2
 967              		.global	vTaskSuspend
 968              		.code	16
 969              		.thumb_func
 971              	vTaskSuspend:
 972              	.LFB14:
1194:../Generated_Code/tasks.c **** 
1195:../Generated_Code/tasks.c **** #endif /* INCLUDE_vTaskPrioritySet */
1196:../Generated_Code/tasks.c **** /*-----------------------------------------------------------*/
1197:../Generated_Code/tasks.c **** 
1198:../Generated_Code/tasks.c **** #if ( INCLUDE_vTaskSuspend == 1 )
1199:../Generated_Code/tasks.c **** 
1200:../Generated_Code/tasks.c ****         void vTaskSuspend( TaskHandle_t xTaskToSuspend )
1201:../Generated_Code/tasks.c ****         {
 973              		.loc 1 1201 0
 974              		.cfi_startproc
 975 0000 80B5     		push	{r7, lr}
 976              	.LCFI15:
 977              		.cfi_def_cfa_offset 8
 978              		.cfi_offset 7, -8
 979              		.cfi_offset 14, -4
 980 0002 84B0     		sub	sp, sp, #16
 981              	.LCFI16:
 982              		.cfi_def_cfa_offset 24
 983 0004 00AF     		add	r7, sp, #0
 984              	.LCFI17:
 985              		.cfi_def_cfa_register 7
 986 0006 7860     		str	r0, [r7, #4]
 987              	.LBB10:
1202:../Generated_Code/tasks.c ****         TCB_t *pxTCB;
1203:../Generated_Code/tasks.c **** 
1204:../Generated_Code/tasks.c ****                 taskENTER_CRITICAL();
 988              		.loc 1 1204 0
 989 0008 FFF7FEFF 		bl	vPortEnterCritical
1205:../Generated_Code/tasks.c ****                 {
1206:../Generated_Code/tasks.c ****                         /* If null is passed in here then it is the running task that is
1207:../Generated_Code/tasks.c ****                         being suspended. */
1208:../Generated_Code/tasks.c ****                         pxTCB = prvGetTCBFromHandle( xTaskToSuspend );
 990              		.loc 1 1208 0
 991 000c 7B68     		ldr	r3, [r7, #4]
 992 000e 002B     		cmp	r3, #0
 993 0010 02D1     		bne	.L63
 994              		.loc 1 1208 0 is_stmt 0
 995 0012 2A4B     		ldr	r3, .L72
 996 0014 1B68     		ldr	r3, [r3]
 997 0016 00E0     		b	.L64
 998              	.L63:
 999              		.loc 1 1208 0
 1000 0018 7B68     		ldr	r3, [r7, #4]
 1001              	.L64:
 1002              		.loc 1 1208 0
 1003 001a FB60     		str	r3, [r7, #12]
1209:../Generated_Code/tasks.c **** 
1210:../Generated_Code/tasks.c ****                         traceTASK_SUSPEND( pxTCB );
1211:../Generated_Code/tasks.c **** 
1212:../Generated_Code/tasks.c ****                         /* Remove task from the ready/delayed list and place in the
1213:../Generated_Code/tasks.c ****                         suspended list. */
1214:../Generated_Code/tasks.c ****                         if( uxListRemove( &( pxTCB->xGenericListItem ) ) == ( UBaseType_t ) 0 )
 1004              		.loc 1 1214 0 is_stmt 1
 1005 001c FB68     		ldr	r3, [r7, #12]
 1006 001e 0433     		add	r3, r3, #4
 1007 0020 181C     		mov	r0, r3
 1008 0022 FFF7FEFF 		bl	uxListRemove
1215:../Generated_Code/tasks.c ****                         {
1216:../Generated_Code/tasks.c ****                                 taskRESET_READY_PRIORITY( pxTCB->uxPriority );
1217:../Generated_Code/tasks.c ****                         }
1218:../Generated_Code/tasks.c ****                         else
1219:../Generated_Code/tasks.c ****                         {
1220:../Generated_Code/tasks.c ****                                 mtCOVERAGE_TEST_MARKER();
1221:../Generated_Code/tasks.c ****                         }
1222:../Generated_Code/tasks.c **** 
1223:../Generated_Code/tasks.c ****                         /* Is the task waiting on an event also? */
1224:../Generated_Code/tasks.c ****                         if( listLIST_ITEM_CONTAINER( &( pxTCB->xEventListItem ) ) != NULL )
 1009              		.loc 1 1224 0
 1010 0026 FB68     		ldr	r3, [r7, #12]
 1011 0028 9B6A     		ldr	r3, [r3, #40]
 1012 002a 002B     		cmp	r3, #0
 1013 002c 04D0     		beq	.L65
1225:../Generated_Code/tasks.c ****                         {
1226:../Generated_Code/tasks.c ****                                 ( void ) uxListRemove( &( pxTCB->xEventListItem ) );
 1014              		.loc 1 1226 0
 1015 002e FB68     		ldr	r3, [r7, #12]
 1016 0030 1833     		add	r3, r3, #24
 1017 0032 181C     		mov	r0, r3
 1018 0034 FFF7FEFF 		bl	uxListRemove
 1019              	.L65:
1227:../Generated_Code/tasks.c ****                         }
1228:../Generated_Code/tasks.c ****                         else
1229:../Generated_Code/tasks.c ****                         {
1230:../Generated_Code/tasks.c ****                                 mtCOVERAGE_TEST_MARKER();
1231:../Generated_Code/tasks.c ****                         }
1232:../Generated_Code/tasks.c **** 
1233:../Generated_Code/tasks.c ****                         vListInsertEnd( &xSuspendedTaskList, &( pxTCB->xGenericListItem ) );
 1020              		.loc 1 1233 0
 1021 0038 FB68     		ldr	r3, [r7, #12]
 1022 003a 0433     		add	r3, r3, #4
 1023 003c 204A     		ldr	r2, .L72+4
 1024 003e 101C     		mov	r0, r2
 1025 0040 191C     		mov	r1, r3
 1026 0042 FFF7FEFF 		bl	vListInsertEnd
1234:../Generated_Code/tasks.c ****                 }
1235:../Generated_Code/tasks.c ****                 taskEXIT_CRITICAL();
 1027              		.loc 1 1235 0
 1028 0046 FFF7FEFF 		bl	vPortExitCritical
1236:../Generated_Code/tasks.c **** 
1237:../Generated_Code/tasks.c ****                 if( pxTCB == pxCurrentTCB )
 1029              		.loc 1 1237 0
 1030 004a 1C4B     		ldr	r3, .L72
 1031 004c 1B68     		ldr	r3, [r3]
 1032 004e FA68     		ldr	r2, [r7, #12]
 1033 0050 D31A     		sub	r3, r2, r3
 1034 0052 5A42     		neg	r2, r3
 1035 0054 5341     		adc	r3, r3, r2
 1036 0056 DBB2     		uxtb	r3, r3
 1037 0058 002B     		cmp	r3, #0
 1038 005a 23D0     		beq	.L66
1238:../Generated_Code/tasks.c ****                 {
1239:../Generated_Code/tasks.c ****                         if( xSchedulerRunning != pdFALSE )
 1039              		.loc 1 1239 0
 1040 005c 194B     		ldr	r3, .L72+8
 1041 005e 1B68     		ldr	r3, [r3]
 1042 0060 5A1E     		sub	r2, r3, #1
 1043 0062 9341     		sbc	r3, r3, r2
 1044 0064 DBB2     		uxtb	r3, r3
 1045 0066 002B     		cmp	r3, #0
 1046 0068 0BD0     		beq	.L67
1240:../Generated_Code/tasks.c ****                         {
1241:../Generated_Code/tasks.c ****                                 /* The current task has just been suspended. */
1242:../Generated_Code/tasks.c ****                                 configASSERT( uxSchedulerSuspended == 0 );
 1047              		.loc 1 1242 0
 1048 006a 174B     		ldr	r3, .L72+12
 1049 006c 1B68     		ldr	r3, [r3]
 1050 006e 5A1E     		sub	r2, r3, #1
 1051 0070 9341     		sbc	r3, r3, r2
 1052 0072 DBB2     		uxtb	r3, r3
 1053 0074 002B     		cmp	r3, #0
 1054 0076 01D0     		beq	.L68
 1055              		.loc 1 1242 0 is_stmt 0
 1056              	@ 1242 "../Generated_Code/tasks.c" 1
 1057 0078 72B6     		cpsid i
 1058              	@ 0 "" 2
 1059              		.code	16
 1060              	.L69:
 1061              		.loc 1 1242 0
 1062 007a FEE7     		b	.L69
 1063              	.L68:
1243:../Generated_Code/tasks.c ****                                 portYIELD_WITHIN_API();
 1064              		.loc 1 1243 0 is_stmt 1
 1065 007c FFF7FEFF 		bl	vPortYieldFromISR
 1066 0080 19E0     		b	.L62
 1067              	.L67:
1244:../Generated_Code/tasks.c ****                         }
1245:../Generated_Code/tasks.c ****                         else
1246:../Generated_Code/tasks.c ****                         {
1247:../Generated_Code/tasks.c ****                                 /* The scheduler is not running, but the task that was pointed
1248:../Generated_Code/tasks.c ****                                 to by pxCurrentTCB has just been suspended and pxCurrentTCB
1249:../Generated_Code/tasks.c ****                                 must be adjusted to point to a different task. */
1250:../Generated_Code/tasks.c ****                                 if( listCURRENT_LIST_LENGTH( &xSuspendedTaskList ) == uxCurrentNumb
 1068              		.loc 1 1250 0
 1069 0082 0F4B     		ldr	r3, .L72+4
 1070 0084 1A68     		ldr	r2, [r3]
 1071 0086 114B     		ldr	r3, .L72+16
 1072 0088 1B68     		ldr	r3, [r3]
 1073 008a D31A     		sub	r3, r2, r3
 1074 008c 5A42     		neg	r2, r3
 1075 008e 5341     		adc	r3, r3, r2
 1076 0090 DBB2     		uxtb	r3, r3
 1077 0092 002B     		cmp	r3, #0
 1078 0094 03D0     		beq	.L71
1251:../Generated_Code/tasks.c ****                                 {
1252:../Generated_Code/tasks.c ****                                         /* No other tasks are ready, so set pxCurrentTCB back to
1253:../Generated_Code/tasks.c ****                                         NULL so when the next task is created pxCurrentTCB will
1254:../Generated_Code/tasks.c ****                                         be set to point to it no matter what its relative priority
1255:../Generated_Code/tasks.c ****                                         is. */
1256:../Generated_Code/tasks.c ****                                         pxCurrentTCB = NULL;
 1079              		.loc 1 1256 0
 1080 0096 094B     		ldr	r3, .L72
 1081 0098 0022     		mov	r2, #0
 1082 009a 1A60     		str	r2, [r3]
 1083 009c 0BE0     		b	.L62
 1084              	.L71:
1257:../Generated_Code/tasks.c ****                                 }
1258:../Generated_Code/tasks.c ****                                 else
1259:../Generated_Code/tasks.c ****                                 {
1260:../Generated_Code/tasks.c ****                                         vTaskSwitchContext();
 1085              		.loc 1 1260 0
 1086 009e FFF7FEFF 		bl	vTaskSwitchContext
 1087 00a2 08E0     		b	.L62
 1088              	.L66:
1261:../Generated_Code/tasks.c ****                                 }
1262:../Generated_Code/tasks.c ****                         }
1263:../Generated_Code/tasks.c ****                 }
1264:../Generated_Code/tasks.c ****                 else
1265:../Generated_Code/tasks.c ****                 {
1266:../Generated_Code/tasks.c ****                         if( xSchedulerRunning != pdFALSE )
 1089              		.loc 1 1266 0
 1090 00a4 074B     		ldr	r3, .L72+8
 1091 00a6 1B68     		ldr	r3, [r3]
 1092 00a8 5A1E     		sub	r2, r3, #1
 1093 00aa 9341     		sbc	r3, r3, r2
 1094 00ac DBB2     		uxtb	r3, r3
 1095 00ae 002B     		cmp	r3, #0
 1096 00b0 01D0     		beq	.L62
1267:../Generated_Code/tasks.c ****                         {
1268:../Generated_Code/tasks.c ****                                 /* A task other than the currently running task was suspended,
1269:../Generated_Code/tasks.c ****                                 reset the next expected unblock time in case it referred to the
1270:../Generated_Code/tasks.c ****                                 task that is now in the Suspended state. */
1271:../Generated_Code/tasks.c ****                                 prvResetNextTaskUnblockTime();
 1097              		.loc 1 1271 0
 1098 00b2 FFF7FEFF 		bl	_ZL27prvResetNextTaskUnblockTimev
 1099              	.L62:
 1100              	.LBE10:
1272:../Generated_Code/tasks.c ****                         }
1273:../Generated_Code/tasks.c ****                         else
1274:../Generated_Code/tasks.c ****                         {
1275:../Generated_Code/tasks.c ****                                 mtCOVERAGE_TEST_MARKER();
1276:../Generated_Code/tasks.c ****                         }
1277:../Generated_Code/tasks.c ****                 }
1278:../Generated_Code/tasks.c ****         }
 1101              		.loc 1 1278 0
 1102 00b6 BD46     		mov	sp, r7
 1103 00b8 04B0     		add	sp, sp, #16
 1104              		@ sp needed for prologue
 1105 00ba 80BD     		pop	{r7, pc}
 1106              	.L73:
 1107              		.align	2
 1108              	.L72:
 1109 00bc 00000000 		.word	pxCurrentTCB
 1110 00c0 00000000 		.word	_ZL18xSuspendedTaskList
 1111 00c4 00000000 		.word	_ZL17xSchedulerRunning
 1112 00c8 00000000 		.word	_ZL20uxSchedulerSuspended
 1113 00cc 00000000 		.word	_ZL22uxCurrentNumberOfTasks
 1114              		.cfi_endproc
 1115              	.LFE14:
 1117              		.section	.text._ZL22prvTaskIsTaskSuspendedPv,"ax",%progbits
 1118              		.align	2
 1119              		.code	16
 1120              		.thumb_func
 1122              	_ZL22prvTaskIsTaskSuspendedPv:
 1123              	.LFB15:
1279:../Generated_Code/tasks.c **** 
1280:../Generated_Code/tasks.c **** #endif /* INCLUDE_vTaskSuspend */
1281:../Generated_Code/tasks.c **** /*-----------------------------------------------------------*/
1282:../Generated_Code/tasks.c **** 
1283:../Generated_Code/tasks.c **** #if ( INCLUDE_vTaskSuspend == 1 )
1284:../Generated_Code/tasks.c **** 
1285:../Generated_Code/tasks.c ****         static BaseType_t prvTaskIsTaskSuspended( const TaskHandle_t xTask )
1286:../Generated_Code/tasks.c ****         {
 1124              		.loc 1 1286 0
 1125              		.cfi_startproc
 1126 0000 80B5     		push	{r7, lr}
 1127              	.LCFI18:
 1128              		.cfi_def_cfa_offset 8
 1129              		.cfi_offset 7, -8
 1130              		.cfi_offset 14, -4
 1131 0002 84B0     		sub	sp, sp, #16
 1132              	.LCFI19:
 1133              		.cfi_def_cfa_offset 24
 1134 0004 00AF     		add	r7, sp, #0
 1135              	.LCFI20:
 1136              		.cfi_def_cfa_register 7
 1137 0006 7860     		str	r0, [r7, #4]
 1138              	.LBB11:
1287:../Generated_Code/tasks.c ****         BaseType_t xReturn = pdFALSE;
 1139              		.loc 1 1287 0
 1140 0008 0023     		mov	r3, #0
 1141 000a FB60     		str	r3, [r7, #12]
1288:../Generated_Code/tasks.c ****         const TCB_t * const pxTCB = ( TCB_t * ) xTask;
 1142              		.loc 1 1288 0
 1143 000c 7B68     		ldr	r3, [r7, #4]
 1144 000e BB60     		str	r3, [r7, #8]
1289:../Generated_Code/tasks.c **** 
1290:../Generated_Code/tasks.c ****                 /* Accesses xPendingReadyList so must be called from a critical
1291:../Generated_Code/tasks.c ****                 section. */
1292:../Generated_Code/tasks.c **** 
1293:../Generated_Code/tasks.c ****                 /* It does not make sense to check if the calling task is suspended. */
1294:../Generated_Code/tasks.c ****                 configASSERT( xTask );
 1145              		.loc 1 1294 0
 1146 0010 7B68     		ldr	r3, [r7, #4]
 1147 0012 002B     		cmp	r3, #0
 1148 0014 01D1     		bne	.L75
 1149              		.loc 1 1294 0 is_stmt 0
 1150              	@ 1294 "../Generated_Code/tasks.c" 1
 1151 0016 72B6     		cpsid i
 1152              	@ 0 "" 2
 1153              		.code	16
 1154              	.L76:
 1155              		.loc 1 1294 0
 1156 0018 FEE7     		b	.L76
 1157              	.L75:
1295:../Generated_Code/tasks.c **** 
1296:../Generated_Code/tasks.c ****                 /* Is the task being resumed actually in the suspended list? */
1297:../Generated_Code/tasks.c ****                 if( listIS_CONTAINED_WITHIN( &xSuspendedTaskList, &( pxTCB->xGenericListItem ) ) !=
 1158              		.loc 1 1297 0 is_stmt 1
 1159 001a BB68     		ldr	r3, [r7, #8]
 1160 001c 5A69     		ldr	r2, [r3, #20]
 1161 001e 0E4B     		ldr	r3, .L83
 1162 0020 9A42     		cmp	r2, r3
 1163 0022 01D1     		bne	.L77
 1164              		.loc 1 1297 0 is_stmt 0
 1165 0024 0123     		mov	r3, #1
 1166 0026 00E0     		b	.L78
 1167              	.L77:
 1168              		.loc 1 1297 0
 1169 0028 0023     		mov	r3, #0
 1170              	.L78:
 1171              		.loc 1 1297 0
 1172 002a 002B     		cmp	r3, #0
 1173 002c 0FD0     		beq	.L79
1298:../Generated_Code/tasks.c ****                 {
1299:../Generated_Code/tasks.c ****                         /* Has the task already been resumed from within an ISR? */
1300:../Generated_Code/tasks.c ****                         if( listIS_CONTAINED_WITHIN( &xPendingReadyList, &( pxTCB->xEventListItem )
 1174              		.loc 1 1300 0 is_stmt 1
 1175 002e BB68     		ldr	r3, [r7, #8]
 1176 0030 9A6A     		ldr	r2, [r3, #40]
 1177 0032 0A4B     		ldr	r3, .L83+4
 1178 0034 9A42     		cmp	r2, r3
 1179 0036 0AD0     		beq	.L79
1301:../Generated_Code/tasks.c ****                         {
1302:../Generated_Code/tasks.c ****                                 /* Is it in the suspended list because it is in the     Suspended
1303:../Generated_Code/tasks.c ****                                 state, or because is is blocked with no timeout? */
1304:../Generated_Code/tasks.c ****                                 if( listIS_CONTAINED_WITHIN( NULL, &( pxTCB->xEventListItem ) ) != 
 1180              		.loc 1 1304 0
 1181 0038 BB68     		ldr	r3, [r7, #8]
 1182 003a 9B6A     		ldr	r3, [r3, #40]
 1183 003c 002B     		cmp	r3, #0
 1184 003e 01D1     		bne	.L80
 1185              		.loc 1 1304 0 is_stmt 0
 1186 0040 0123     		mov	r3, #1
 1187 0042 00E0     		b	.L81
 1188              	.L80:
 1189              		.loc 1 1304 0
 1190 0044 0023     		mov	r3, #0
 1191              	.L81:
 1192              		.loc 1 1304 0
 1193 0046 002B     		cmp	r3, #0
 1194 0048 01D0     		beq	.L79
1305:../Generated_Code/tasks.c ****                                 {
1306:../Generated_Code/tasks.c ****                                         xReturn = pdTRUE;
 1195              		.loc 1 1306 0 is_stmt 1
 1196 004a 0123     		mov	r3, #1
 1197 004c FB60     		str	r3, [r7, #12]
 1198              	.L79:
1307:../Generated_Code/tasks.c ****                                 }
1308:../Generated_Code/tasks.c ****                                 else
1309:../Generated_Code/tasks.c ****                                 {
1310:../Generated_Code/tasks.c ****                                         mtCOVERAGE_TEST_MARKER();
1311:../Generated_Code/tasks.c ****                                 }
1312:../Generated_Code/tasks.c ****                         }
1313:../Generated_Code/tasks.c ****                         else
1314:../Generated_Code/tasks.c ****                         {
1315:../Generated_Code/tasks.c ****                                 mtCOVERAGE_TEST_MARKER();
1316:../Generated_Code/tasks.c ****                         }
1317:../Generated_Code/tasks.c ****                 }
1318:../Generated_Code/tasks.c ****                 else
1319:../Generated_Code/tasks.c ****                 {
1320:../Generated_Code/tasks.c ****                         mtCOVERAGE_TEST_MARKER();
1321:../Generated_Code/tasks.c ****                 }
1322:../Generated_Code/tasks.c **** 
1323:../Generated_Code/tasks.c ****                 return xReturn;
 1199              		.loc 1 1323 0
 1200 004e FB68     		ldr	r3, [r7, #12]
 1201              	.LBE11:
1324:../Generated_Code/tasks.c ****         } /*lint !e818 xTask cannot be a pointer to const because it is a typedef. */
 1202              		.loc 1 1324 0
 1203 0050 181C     		mov	r0, r3
 1204 0052 BD46     		mov	sp, r7
 1205 0054 04B0     		add	sp, sp, #16
 1206              		@ sp needed for prologue
 1207 0056 80BD     		pop	{r7, pc}
 1208              	.L84:
 1209              		.align	2
 1210              	.L83:
 1211 0058 00000000 		.word	_ZL18xSuspendedTaskList
 1212 005c 00000000 		.word	_ZL17xPendingReadyList
 1213              		.cfi_endproc
 1214              	.LFE15:
 1216              		.section	.text.vTaskResume,"ax",%progbits
 1217              		.align	2
 1218              		.global	vTaskResume
 1219              		.code	16
 1220              		.thumb_func
 1222              	vTaskResume:
 1223              	.LFB16:
1325:../Generated_Code/tasks.c **** 
1326:../Generated_Code/tasks.c **** #endif /* INCLUDE_vTaskSuspend */
1327:../Generated_Code/tasks.c **** /*-----------------------------------------------------------*/
1328:../Generated_Code/tasks.c **** 
1329:../Generated_Code/tasks.c **** #if ( INCLUDE_vTaskSuspend == 1 )
1330:../Generated_Code/tasks.c **** 
1331:../Generated_Code/tasks.c ****         void vTaskResume( TaskHandle_t xTaskToResume )
1332:../Generated_Code/tasks.c ****         {
 1224              		.loc 1 1332 0
 1225              		.cfi_startproc
 1226 0000 80B5     		push	{r7, lr}
 1227              	.LCFI21:
 1228              		.cfi_def_cfa_offset 8
 1229              		.cfi_offset 7, -8
 1230              		.cfi_offset 14, -4
 1231 0002 84B0     		sub	sp, sp, #16
 1232              	.LCFI22:
 1233              		.cfi_def_cfa_offset 24
 1234 0004 00AF     		add	r7, sp, #0
 1235              	.LCFI23:
 1236              		.cfi_def_cfa_register 7
 1237 0006 7860     		str	r0, [r7, #4]
 1238              	.LBB12:
1333:../Generated_Code/tasks.c ****         TCB_t * const pxTCB = ( TCB_t * ) xTaskToResume;
 1239              		.loc 1 1333 0
 1240 0008 7B68     		ldr	r3, [r7, #4]
 1241 000a FB60     		str	r3, [r7, #12]
1334:../Generated_Code/tasks.c **** 
1335:../Generated_Code/tasks.c ****                 /* It does not make sense to resume the calling task. */
1336:../Generated_Code/tasks.c ****                 configASSERT( xTaskToResume );
 1242              		.loc 1 1336 0
 1243 000c 7B68     		ldr	r3, [r7, #4]
 1244 000e 002B     		cmp	r3, #0
 1245 0010 01D1     		bne	.L86
 1246              		.loc 1 1336 0 is_stmt 0
 1247              	@ 1336 "../Generated_Code/tasks.c" 1
 1248 0012 72B6     		cpsid i
 1249              	@ 0 "" 2
 1250              		.code	16
 1251              	.L87:
 1252              		.loc 1 1336 0
 1253 0014 FEE7     		b	.L87
 1254              	.L86:
1337:../Generated_Code/tasks.c **** 
1338:../Generated_Code/tasks.c ****                 /* The parameter cannot be NULL as it is impossible to resume the
1339:../Generated_Code/tasks.c ****                 currently executing task. */
1340:../Generated_Code/tasks.c ****                 if( ( pxTCB != NULL ) && ( pxTCB != pxCurrentTCB ) )
 1255              		.loc 1 1340 0 is_stmt 1
 1256 0016 FB68     		ldr	r3, [r7, #12]
 1257 0018 002B     		cmp	r3, #0
 1258 001a 06D0     		beq	.L88
 1259              		.loc 1 1340 0 is_stmt 0
 1260 001c 244B     		ldr	r3, .L93
 1261 001e 1B68     		ldr	r3, [r3]
 1262 0020 FA68     		ldr	r2, [r7, #12]
 1263 0022 9A42     		cmp	r2, r3
 1264 0024 01D0     		beq	.L88
 1265              		.loc 1 1340 0
 1266 0026 0123     		mov	r3, #1
 1267 0028 00E0     		b	.L89
 1268              	.L88:
 1269              		.loc 1 1340 0
 1270 002a 0023     		mov	r3, #0
 1271              	.L89:
 1272              		.loc 1 1340 0
 1273 002c 002B     		cmp	r3, #0
 1274 002e 3CD0     		beq	.L85
1341:../Generated_Code/tasks.c ****                 {
1342:../Generated_Code/tasks.c ****                         taskENTER_CRITICAL();
 1275              		.loc 1 1342 0 is_stmt 1
 1276 0030 FFF7FEFF 		bl	vPortEnterCritical
1343:../Generated_Code/tasks.c ****                         {
1344:../Generated_Code/tasks.c ****                                 if( prvTaskIsTaskSuspended( pxTCB ) == pdTRUE )
 1277              		.loc 1 1344 0
 1278 0034 FB68     		ldr	r3, [r7, #12]
 1279 0036 181C     		mov	r0, r3
 1280 0038 FFF7FEFF 		bl	_ZL22prvTaskIsTaskSuspendedPv
 1281 003c 031C     		mov	r3, r0
 1282 003e 013B     		sub	r3, r3, #1
 1283 0040 5A42     		neg	r2, r3
 1284 0042 5341     		adc	r3, r3, r2
 1285 0044 DBB2     		uxtb	r3, r3
 1286 0046 002B     		cmp	r3, #0
 1287 0048 2DD0     		beq	.L91
1345:../Generated_Code/tasks.c ****                                 {
1346:../Generated_Code/tasks.c ****                                         traceTASK_RESUME( pxTCB );
1347:../Generated_Code/tasks.c **** 
1348:../Generated_Code/tasks.c ****                                         /* As we are in a critical section we can access the ready
1349:../Generated_Code/tasks.c ****                                         lists even if the scheduler is suspended. */
1350:../Generated_Code/tasks.c ****                                         ( void ) uxListRemove(  &( pxTCB->xGenericListItem ) );
 1288              		.loc 1 1350 0
 1289 004a FB68     		ldr	r3, [r7, #12]
 1290 004c 0433     		add	r3, r3, #4
 1291 004e 181C     		mov	r0, r3
 1292 0050 FFF7FEFF 		bl	uxListRemove
1351:../Generated_Code/tasks.c ****                                         prvAddTaskToReadyList( pxTCB );
 1293              		.loc 1 1351 0
 1294 0054 FB68     		ldr	r3, [r7, #12]
 1295 0056 DA6A     		ldr	r2, [r3, #44]
 1296 0058 164B     		ldr	r3, .L93+4
 1297 005a 1B68     		ldr	r3, [r3]
 1298 005c 9342     		cmp	r3, r2
 1299 005e 9B41     		sbc	r3, r3, r3
 1300 0060 5B42     		neg	r3, r3
 1301 0062 DBB2     		uxtb	r3, r3
 1302 0064 002B     		cmp	r3, #0
 1303 0066 03D0     		beq	.L92
 1304              		.loc 1 1351 0 is_stmt 0
 1305 0068 FB68     		ldr	r3, [r7, #12]
 1306 006a DA6A     		ldr	r2, [r3, #44]
 1307 006c 114B     		ldr	r3, .L93+4
 1308 006e 1A60     		str	r2, [r3]
 1309              	.L92:
 1310              		.loc 1 1351 0
 1311 0070 FB68     		ldr	r3, [r7, #12]
 1312 0072 DA6A     		ldr	r2, [r3, #44]
 1313 0074 131C     		mov	r3, r2
 1314 0076 9B00     		lsl	r3, r3, #2
 1315 0078 9B18     		add	r3, r3, r2
 1316 007a 9B00     		lsl	r3, r3, #2
 1317 007c 0E4A     		ldr	r2, .L93+8
 1318 007e 9A18     		add	r2, r3, r2
 1319 0080 FB68     		ldr	r3, [r7, #12]
 1320 0082 0433     		add	r3, r3, #4
 1321 0084 101C     		mov	r0, r2
 1322 0086 191C     		mov	r1, r3
 1323 0088 FFF7FEFF 		bl	vListInsertEnd
1352:../Generated_Code/tasks.c **** 
1353:../Generated_Code/tasks.c ****                                         /* We may have just resumed a higher priority task. */
1354:../Generated_Code/tasks.c ****                                         if( pxTCB->uxPriority >= pxCurrentTCB->uxPriority )
 1324              		.loc 1 1354 0 is_stmt 1
 1325 008c FB68     		ldr	r3, [r7, #12]
 1326 008e D96A     		ldr	r1, [r3, #44]
 1327 0090 074B     		ldr	r3, .L93
 1328 0092 1B68     		ldr	r3, [r3]
 1329 0094 DA6A     		ldr	r2, [r3, #44]
 1330 0096 0023     		mov	r3, #0
 1331 0098 9142     		cmp	r1, r2
 1332 009a 5B41     		adc	r3, r3, r3
 1333 009c DBB2     		uxtb	r3, r3
 1334 009e 002B     		cmp	r3, #0
 1335 00a0 01D0     		beq	.L91
1355:../Generated_Code/tasks.c ****                                         {
1356:../Generated_Code/tasks.c ****                                                 /* This yield may not cause the task just resumed t
1357:../Generated_Code/tasks.c ****                                                 but will leave the lists in the correct state for t
1358:../Generated_Code/tasks.c ****                                                 next yield. */
1359:../Generated_Code/tasks.c ****                                                 taskYIELD_IF_USING_PREEMPTION();
 1336              		.loc 1 1359 0
 1337 00a2 FFF7FEFF 		bl	vPortYieldFromISR
 1338              	.L91:
1360:../Generated_Code/tasks.c ****                                         }
1361:../Generated_Code/tasks.c ****                                         else
1362:../Generated_Code/tasks.c ****                                         {
1363:../Generated_Code/tasks.c ****                                                 mtCOVERAGE_TEST_MARKER();
1364:../Generated_Code/tasks.c ****                                         }
1365:../Generated_Code/tasks.c ****                                 }
1366:../Generated_Code/tasks.c ****                                 else
1367:../Generated_Code/tasks.c ****                                 {
1368:../Generated_Code/tasks.c ****                                         mtCOVERAGE_TEST_MARKER();
1369:../Generated_Code/tasks.c ****                                 }
1370:../Generated_Code/tasks.c ****                         }
1371:../Generated_Code/tasks.c ****                         taskEXIT_CRITICAL();
 1339              		.loc 1 1371 0
 1340 00a6 FFF7FEFF 		bl	vPortExitCritical
 1341              	.L85:
 1342              	.LBE12:
1372:../Generated_Code/tasks.c ****                 }
1373:../Generated_Code/tasks.c ****                 else
1374:../Generated_Code/tasks.c ****                 {
1375:../Generated_Code/tasks.c ****                         mtCOVERAGE_TEST_MARKER();
1376:../Generated_Code/tasks.c ****                 }
1377:../Generated_Code/tasks.c ****         }
 1343              		.loc 1 1377 0
 1344 00aa BD46     		mov	sp, r7
 1345 00ac 04B0     		add	sp, sp, #16
 1346              		@ sp needed for prologue
 1347 00ae 80BD     		pop	{r7, pc}
 1348              	.L94:
 1349              		.align	2
 1350              	.L93:
 1351 00b0 00000000 		.word	pxCurrentTCB
 1352 00b4 00000000 		.word	_ZL18uxTopReadyPriority
 1353 00b8 00000000 		.word	_ZL17pxReadyTasksLists
 1354              		.cfi_endproc
 1355              	.LFE16:
 1357              		.section	.text.xTaskResumeFromISR,"ax",%progbits
 1358              		.align	2
 1359              		.global	xTaskResumeFromISR
 1360              		.code	16
 1361              		.thumb_func
 1363              	xTaskResumeFromISR:
 1364              	.LFB17:
1378:../Generated_Code/tasks.c **** 
1379:../Generated_Code/tasks.c **** #endif /* INCLUDE_vTaskSuspend */
1380:../Generated_Code/tasks.c **** 
1381:../Generated_Code/tasks.c **** /*-----------------------------------------------------------*/
1382:../Generated_Code/tasks.c **** 
1383:../Generated_Code/tasks.c **** #if ( ( INCLUDE_xTaskResumeFromISR == 1 ) && ( INCLUDE_vTaskSuspend == 1 ) )
1384:../Generated_Code/tasks.c **** 
1385:../Generated_Code/tasks.c ****         BaseType_t xTaskResumeFromISR( TaskHandle_t xTaskToResume )
1386:../Generated_Code/tasks.c ****         {
 1365              		.loc 1 1386 0
 1366              		.cfi_startproc
 1367 0000 80B5     		push	{r7, lr}
 1368              	.LCFI24:
 1369              		.cfi_def_cfa_offset 8
 1370              		.cfi_offset 7, -8
 1371              		.cfi_offset 14, -4
 1372 0002 86B0     		sub	sp, sp, #24
 1373              	.LCFI25:
 1374              		.cfi_def_cfa_offset 32
 1375 0004 00AF     		add	r7, sp, #0
 1376              	.LCFI26:
 1377              		.cfi_def_cfa_register 7
 1378 0006 7860     		str	r0, [r7, #4]
 1379              	.LBB13:
1387:../Generated_Code/tasks.c ****         BaseType_t xYieldRequired = pdFALSE;
 1380              		.loc 1 1387 0
 1381 0008 0023     		mov	r3, #0
 1382 000a 7B61     		str	r3, [r7, #20]
1388:../Generated_Code/tasks.c ****         TCB_t * const pxTCB = ( TCB_t * ) xTaskToResume;
 1383              		.loc 1 1388 0
 1384 000c 7B68     		ldr	r3, [r7, #4]
 1385 000e 3B61     		str	r3, [r7, #16]
1389:../Generated_Code/tasks.c ****         UBaseType_t uxSavedInterruptStatus;
1390:../Generated_Code/tasks.c **** 
1391:../Generated_Code/tasks.c ****                 configASSERT( xTaskToResume );
 1386              		.loc 1 1391 0
 1387 0010 7B68     		ldr	r3, [r7, #4]
 1388 0012 002B     		cmp	r3, #0
 1389 0014 01D1     		bne	.L96
 1390              		.loc 1 1391 0 is_stmt 0
 1391              	@ 1391 "../Generated_Code/tasks.c" 1
 1392 0016 72B6     		cpsid i
 1393              	@ 0 "" 2
 1394              		.code	16
 1395              	.L97:
 1396              		.loc 1 1391 0
 1397 0018 FEE7     		b	.L97
 1398              	.L96:
1392:../Generated_Code/tasks.c **** 
1393:../Generated_Code/tasks.c ****                 /* RTOS ports that support interrupt nesting have the concept of a
1394:../Generated_Code/tasks.c ****                 maximum system call (or maximum API call) interrupt priority.
1395:../Generated_Code/tasks.c ****                 Interrupts that are     above the maximum system call priority are keep
1396:../Generated_Code/tasks.c ****                 permanently enabled, even when the RTOS kernel is in a critical section,
1397:../Generated_Code/tasks.c ****                 but cannot make any calls to FreeRTOS API functions.  If configASSERT()
1398:../Generated_Code/tasks.c ****                 is defined in FreeRTOSConfig.h then
1399:../Generated_Code/tasks.c ****                 portASSERT_IF_INTERRUPT_PRIORITY_INVALID() will result in an assertion
1400:../Generated_Code/tasks.c ****                 failure if a FreeRTOS API function is called from an interrupt that has
1401:../Generated_Code/tasks.c ****                 been assigned a priority above the configured maximum system call
1402:../Generated_Code/tasks.c ****                 priority.  Only FreeRTOS functions that end in FromISR can be called
1403:../Generated_Code/tasks.c ****                 from interrupts that have been assigned a priority at or (logically)
1404:../Generated_Code/tasks.c ****                 below the maximum system call interrupt priority.  FreeRTOS maintains a
1405:../Generated_Code/tasks.c ****                 separate interrupt safe API to ensure interrupt entry is as fast and as
1406:../Generated_Code/tasks.c ****                 simple as possible.  More information (albeit Cortex-M specific) is
1407:../Generated_Code/tasks.c ****                 provided on the following link:
1408:../Generated_Code/tasks.c ****                 http://www.freertos.org/RTOS-Cortex-M3-M4.html */
1409:../Generated_Code/tasks.c ****                 portASSERT_IF_INTERRUPT_PRIORITY_INVALID();
1410:../Generated_Code/tasks.c **** 
1411:../Generated_Code/tasks.c ****                 uxSavedInterruptStatus = portSET_INTERRUPT_MASK_FROM_ISR();
 1399              		.loc 1 1411 0 is_stmt 1
 1400 001a 0023     		mov	r3, #0
 1401 001c FB60     		str	r3, [r7, #12]
 1402              	@ 1411 "../Generated_Code/tasks.c" 1
 1403 001e 72B6     		cpsid i
 1404              	@ 0 "" 2
1412:../Generated_Code/tasks.c ****                 {
1413:../Generated_Code/tasks.c ****                         if( prvTaskIsTaskSuspended( pxTCB ) == pdTRUE )
 1405              		.loc 1 1413 0
 1406              		.code	16
 1407 0020 3B69     		ldr	r3, [r7, #16]
 1408 0022 181C     		mov	r0, r3
 1409 0024 FFF7FEFF 		bl	_ZL22prvTaskIsTaskSuspendedPv
 1410 0028 031C     		mov	r3, r0
 1411 002a 013B     		sub	r3, r3, #1
 1412 002c 5A42     		neg	r2, r3
 1413 002e 5341     		adc	r3, r3, r2
 1414 0030 DBB2     		uxtb	r3, r3
 1415 0032 002B     		cmp	r3, #0
 1416 0034 3CD0     		beq	.L98
1414:../Generated_Code/tasks.c ****                         {
1415:../Generated_Code/tasks.c ****                                 traceTASK_RESUME_FROM_ISR( pxTCB );
1416:../Generated_Code/tasks.c **** 
1417:../Generated_Code/tasks.c ****                                 /* Check the ready lists can be accessed. */
1418:../Generated_Code/tasks.c ****                                 if( uxSchedulerSuspended == ( UBaseType_t ) pdFALSE )
 1417              		.loc 1 1418 0
 1418 0036 214B     		ldr	r3, .L103
 1419 0038 1B68     		ldr	r3, [r3]
 1420 003a 5A42     		neg	r2, r3
 1421 003c 5341     		adc	r3, r3, r2
 1422 003e DBB2     		uxtb	r3, r3
 1423 0040 002B     		cmp	r3, #0
 1424 0042 2ED0     		beq	.L99
1419:../Generated_Code/tasks.c ****                                 {
1420:../Generated_Code/tasks.c ****                                         /* Ready lists can be accessed so move the task from the
1421:../Generated_Code/tasks.c ****                                         suspended list to the ready list directly. */
1422:../Generated_Code/tasks.c ****                                         if( pxTCB->uxPriority >= pxCurrentTCB->uxPriority )
 1425              		.loc 1 1422 0
 1426 0044 3B69     		ldr	r3, [r7, #16]
 1427 0046 D96A     		ldr	r1, [r3, #44]
 1428 0048 1D4B     		ldr	r3, .L103+4
 1429 004a 1B68     		ldr	r3, [r3]
 1430 004c DA6A     		ldr	r2, [r3, #44]
 1431 004e 0023     		mov	r3, #0
 1432 0050 9142     		cmp	r1, r2
 1433 0052 5B41     		adc	r3, r3, r3
 1434 0054 DBB2     		uxtb	r3, r3
 1435 0056 002B     		cmp	r3, #0
 1436 0058 01D0     		beq	.L100
1423:../Generated_Code/tasks.c ****                                         {
1424:../Generated_Code/tasks.c ****                                                 xYieldRequired = pdTRUE;
 1437              		.loc 1 1424 0
 1438 005a 0123     		mov	r3, #1
 1439 005c 7B61     		str	r3, [r7, #20]
 1440              	.L100:
1425:../Generated_Code/tasks.c ****                                         }
1426:../Generated_Code/tasks.c ****                                         else
1427:../Generated_Code/tasks.c ****                                         {
1428:../Generated_Code/tasks.c ****                                                 mtCOVERAGE_TEST_MARKER();
1429:../Generated_Code/tasks.c ****                                         }
1430:../Generated_Code/tasks.c **** 
1431:../Generated_Code/tasks.c ****                                         ( void ) uxListRemove(  &( pxTCB->xGenericListItem ) );
 1441              		.loc 1 1431 0
 1442 005e 3B69     		ldr	r3, [r7, #16]
 1443 0060 0433     		add	r3, r3, #4
 1444 0062 181C     		mov	r0, r3
 1445 0064 FFF7FEFF 		bl	uxListRemove
1432:../Generated_Code/tasks.c ****                                         prvAddTaskToReadyList( pxTCB );
 1446              		.loc 1 1432 0
 1447 0068 3B69     		ldr	r3, [r7, #16]
 1448 006a DA6A     		ldr	r2, [r3, #44]
 1449 006c 154B     		ldr	r3, .L103+8
 1450 006e 1B68     		ldr	r3, [r3]
 1451 0070 9342     		cmp	r3, r2
 1452 0072 9B41     		sbc	r3, r3, r3
 1453 0074 5B42     		neg	r3, r3
 1454 0076 DBB2     		uxtb	r3, r3
 1455 0078 002B     		cmp	r3, #0
 1456 007a 03D0     		beq	.L101
 1457              		.loc 1 1432 0 is_stmt 0
 1458 007c 3B69     		ldr	r3, [r7, #16]
 1459 007e DA6A     		ldr	r2, [r3, #44]
 1460 0080 104B     		ldr	r3, .L103+8
 1461 0082 1A60     		str	r2, [r3]
 1462              	.L101:
 1463              		.loc 1 1432 0
 1464 0084 3B69     		ldr	r3, [r7, #16]
 1465 0086 DA6A     		ldr	r2, [r3, #44]
 1466 0088 131C     		mov	r3, r2
 1467 008a 9B00     		lsl	r3, r3, #2
 1468 008c 9B18     		add	r3, r3, r2
 1469 008e 9B00     		lsl	r3, r3, #2
 1470 0090 0D4A     		ldr	r2, .L103+12
 1471 0092 9A18     		add	r2, r3, r2
 1472 0094 3B69     		ldr	r3, [r7, #16]
 1473 0096 0433     		add	r3, r3, #4
 1474 0098 101C     		mov	r0, r2
 1475 009a 191C     		mov	r1, r3
 1476 009c FFF7FEFF 		bl	vListInsertEnd
 1477 00a0 06E0     		b	.L98
 1478              	.L99:
1433:../Generated_Code/tasks.c ****                                 }
1434:../Generated_Code/tasks.c ****                                 else
1435:../Generated_Code/tasks.c ****                                 {
1436:../Generated_Code/tasks.c ****                                         /* The delayed or ready lists cannot be accessed so the tas
1437:../Generated_Code/tasks.c ****                                         is held in the pending ready list until the scheduler is
1438:../Generated_Code/tasks.c ****                                         unsuspended. */
1439:../Generated_Code/tasks.c ****                                         vListInsertEnd( &( xPendingReadyList ), &( pxTCB->xEventLis
 1479              		.loc 1 1439 0 is_stmt 1
 1480 00a2 3B69     		ldr	r3, [r7, #16]
 1481 00a4 1833     		add	r3, r3, #24
 1482 00a6 094A     		ldr	r2, .L103+16
 1483 00a8 101C     		mov	r0, r2
 1484 00aa 191C     		mov	r1, r3
 1485 00ac FFF7FEFF 		bl	vListInsertEnd
 1486              	.L98:
1440:../Generated_Code/tasks.c ****                                 }
1441:../Generated_Code/tasks.c ****                         }
1442:../Generated_Code/tasks.c ****                         else
1443:../Generated_Code/tasks.c ****                         {
1444:../Generated_Code/tasks.c ****                                 mtCOVERAGE_TEST_MARKER();
1445:../Generated_Code/tasks.c ****                         }
1446:../Generated_Code/tasks.c ****                 }
1447:../Generated_Code/tasks.c ****                 portCLEAR_INTERRUPT_MASK_FROM_ISR( uxSavedInterruptStatus );
 1487              		.loc 1 1447 0
 1488              	@ 1447 "../Generated_Code/tasks.c" 1
 1489 00b0 62B6     		cpsie i
 1490              	@ 0 "" 2
1448:../Generated_Code/tasks.c **** 
1449:../Generated_Code/tasks.c ****                 return xYieldRequired;
 1491              		.loc 1 1449 0
 1492              		.code	16
 1493 00b2 7B69     		ldr	r3, [r7, #20]
 1494              	.LBE13:
1450:../Generated_Code/tasks.c ****         }
 1495              		.loc 1 1450 0
 1496 00b4 181C     		mov	r0, r3
 1497 00b6 BD46     		mov	sp, r7
 1498 00b8 06B0     		add	sp, sp, #24
 1499              		@ sp needed for prologue
 1500 00ba 80BD     		pop	{r7, pc}
 1501              	.L104:
 1502              		.align	2
 1503              	.L103:
 1504 00bc 00000000 		.word	_ZL20uxSchedulerSuspended
 1505 00c0 00000000 		.word	pxCurrentTCB
 1506 00c4 00000000 		.word	_ZL18uxTopReadyPriority
 1507 00c8 00000000 		.word	_ZL17pxReadyTasksLists
 1508 00cc 00000000 		.word	_ZL17xPendingReadyList
 1509              		.cfi_endproc
 1510              	.LFE17:
 1512              		.section	.rodata
 1513              		.align	2
 1514              	.LC32:
 1515 0000 49444C45 		.ascii	"IDLE\000"
 1515      00
 1516 0005 000000   		.section	.text.vTaskStartScheduler,"ax",%progbits
 1517              		.align	2
 1518              		.global	vTaskStartScheduler
 1519              		.code	16
 1520              		.thumb_func
 1522              	vTaskStartScheduler:
 1523              	.LFB18:
1451:../Generated_Code/tasks.c **** 
1452:../Generated_Code/tasks.c **** #endif /* ( ( INCLUDE_xTaskResumeFromISR == 1 ) && ( INCLUDE_vTaskSuspend == 1 ) ) */
1453:../Generated_Code/tasks.c **** /*-----------------------------------------------------------*/
1454:../Generated_Code/tasks.c **** 
1455:../Generated_Code/tasks.c **** void vTaskStartScheduler( void )
1456:../Generated_Code/tasks.c **** {
 1524              		.loc 1 1456 0
 1525              		.cfi_startproc
 1526 0000 80B5     		push	{r7, lr}
 1527              	.LCFI27:
 1528              		.cfi_def_cfa_offset 8
 1529              		.cfi_offset 7, -8
 1530              		.cfi_offset 14, -4
 1531 0002 86B0     		sub	sp, sp, #24
 1532              	.LCFI28:
 1533              		.cfi_def_cfa_offset 32
 1534 0004 04AF     		add	r7, sp, #16
 1535              	.LCFI29:
 1536              		.cfi_def_cfa 7, 16
 1537              	.LBB14:
1457:../Generated_Code/tasks.c **** BaseType_t xReturn;
1458:../Generated_Code/tasks.c **** 
1459:../Generated_Code/tasks.c ****         /* Add the idle task at the lowest priority. */
1460:../Generated_Code/tasks.c ****         #if ( INCLUDE_xTaskGetIdleTaskHandle == 1 )
1461:../Generated_Code/tasks.c ****         {
1462:../Generated_Code/tasks.c ****                 /* Create the idle task, storing its handle in xIdleTaskHandle so it can
1463:../Generated_Code/tasks.c ****                 be returned by the xTaskGetIdleTaskHandle() function. */
1464:../Generated_Code/tasks.c ****                 xReturn = xTaskCreate( prvIdleTask, "IDLE", tskIDLE_STACK_SIZE, ( void * ) NULL, ( 
1465:../Generated_Code/tasks.c ****         }
1466:../Generated_Code/tasks.c ****         #else
1467:../Generated_Code/tasks.c ****         {
1468:../Generated_Code/tasks.c ****                 /* Create the idle task without storing its handle. */
1469:../Generated_Code/tasks.c ****                 xReturn = xTaskCreate( prvIdleTask, "IDLE", tskIDLE_STACK_SIZE, ( void * ) NULL, ( 
 1538              		.loc 1 1469 0
 1539 0006 134A     		ldr	r2, .L109
 1540 0008 134B     		ldr	r3, .L109+4
 1541 000a 0021     		mov	r1, #0
 1542 000c 0091     		str	r1, [sp]
 1543 000e 0021     		mov	r1, #0
 1544 0010 0191     		str	r1, [sp, #4]
 1545 0012 0021     		mov	r1, #0
 1546 0014 0291     		str	r1, [sp, #8]
 1547 0016 0021     		mov	r1, #0
 1548 0018 0391     		str	r1, [sp, #12]
 1549 001a 101C     		mov	r0, r2
 1550 001c 191C     		mov	r1, r3
 1551 001e C822     		mov	r2, #200
 1552 0020 0023     		mov	r3, #0
 1553 0022 FFF7FEFF 		bl	xTaskGenericCreate
 1554 0026 031C     		mov	r3, r0
 1555 0028 7B60     		str	r3, [r7, #4]
1470:../Generated_Code/tasks.c ****         }
1471:../Generated_Code/tasks.c ****         #endif /* INCLUDE_xTaskGetIdleTaskHandle */
1472:../Generated_Code/tasks.c **** 
1473:../Generated_Code/tasks.c ****         #if ( configUSE_TIMERS == 1 )
1474:../Generated_Code/tasks.c ****         {
1475:../Generated_Code/tasks.c ****                 if( xReturn == pdPASS )
1476:../Generated_Code/tasks.c ****                 {
1477:../Generated_Code/tasks.c ****                         xReturn = xTimerCreateTimerTask();
1478:../Generated_Code/tasks.c ****                 }
1479:../Generated_Code/tasks.c ****                 else
1480:../Generated_Code/tasks.c ****                 {
1481:../Generated_Code/tasks.c ****                         mtCOVERAGE_TEST_MARKER();
1482:../Generated_Code/tasks.c ****                 }
1483:../Generated_Code/tasks.c ****         }
1484:../Generated_Code/tasks.c ****         #endif /* configUSE_TIMERS */
1485:../Generated_Code/tasks.c **** 
1486:../Generated_Code/tasks.c ****         if( xReturn == pdPASS )
 1556              		.loc 1 1486 0
 1557 002a 7B68     		ldr	r3, [r7, #4]
 1558 002c 012B     		cmp	r3, #1
 1559 002e 09D1     		bne	.L106
1487:../Generated_Code/tasks.c ****         {
1488:../Generated_Code/tasks.c ****                 /* Interrupts are turned off here, to ensure a tick does not occur
1489:../Generated_Code/tasks.c ****                 before or during the call to xPortStartScheduler().  The stacks of
1490:../Generated_Code/tasks.c ****                 the created tasks contain a status word with interrupts switched on
1491:../Generated_Code/tasks.c ****                 so interrupts will automatically get re-enabled when the first task
1492:../Generated_Code/tasks.c ****                 starts to run. */
1493:../Generated_Code/tasks.c ****                 portDISABLE_INTERRUPTS();
 1560              		.loc 1 1493 0
 1561              	@ 1493 "../Generated_Code/tasks.c" 1
 1562 0030 72B6     		cpsid i
 1563              	@ 0 "" 2
1494:../Generated_Code/tasks.c **** 
1495:../Generated_Code/tasks.c ****                 #if ( configUSE_NEWLIB_REENTRANT == 1 )
1496:../Generated_Code/tasks.c ****                 {
1497:../Generated_Code/tasks.c ****                         /* Switch Newlib's _impure_ptr variable to point to the _reent
1498:../Generated_Code/tasks.c ****                         structure specific to the task that will run first. */
1499:../Generated_Code/tasks.c ****                         _impure_ptr = &( pxCurrentTCB->xNewLib_reent );
1500:../Generated_Code/tasks.c ****                 }
1501:../Generated_Code/tasks.c ****                 #endif /* configUSE_NEWLIB_REENTRANT */
1502:../Generated_Code/tasks.c **** 
1503:../Generated_Code/tasks.c ****                 xSchedulerRunning = pdTRUE;
 1564              		.loc 1 1503 0
 1565              		.code	16
 1566 0032 0A4B     		ldr	r3, .L109+8
 1567 0034 0122     		mov	r2, #1
 1568 0036 1A60     		str	r2, [r3]
1504:../Generated_Code/tasks.c ****                 xTickCount = ( TickType_t ) 0U;
 1569              		.loc 1 1504 0
 1570 0038 094B     		ldr	r3, .L109+12
 1571 003a 0022     		mov	r2, #0
 1572 003c 1A60     		str	r2, [r3]
1505:../Generated_Code/tasks.c **** 
1506:../Generated_Code/tasks.c ****                 /* If configGENERATE_RUN_TIME_STATS is defined then the following
1507:../Generated_Code/tasks.c ****                 macro must be defined to configure the timer/counter used to generate
1508:../Generated_Code/tasks.c ****                 the run time counter time base. */
1509:../Generated_Code/tasks.c ****                 portCONFIGURE_TIMER_FOR_RUN_TIME_STATS();
1510:../Generated_Code/tasks.c **** 
1511:../Generated_Code/tasks.c ****                 /* Setting up the timer tick is hardware specific and thus in the
1512:../Generated_Code/tasks.c ****                 portable interface. */
1513:../Generated_Code/tasks.c ****                 if( xPortStartScheduler() != pdFALSE )
 1573              		.loc 1 1513 0
 1574 003e FFF7FEFF 		bl	xPortStartScheduler
 1575 0042 04E0     		b	.L105
 1576              	.L106:
1514:../Generated_Code/tasks.c ****                 {
1515:../Generated_Code/tasks.c ****                         /* Should not reach here as if the scheduler is running the
1516:../Generated_Code/tasks.c ****                         function will not return. */
1517:../Generated_Code/tasks.c ****                 }
1518:../Generated_Code/tasks.c ****                 else
1519:../Generated_Code/tasks.c ****                 {
1520:../Generated_Code/tasks.c ****                         /* Should only reach here if a task calls xTaskEndScheduler(). */
1521:../Generated_Code/tasks.c ****                 }
1522:../Generated_Code/tasks.c ****         }
1523:../Generated_Code/tasks.c ****         else
1524:../Generated_Code/tasks.c ****         {
1525:../Generated_Code/tasks.c ****                 /* This line will only be reached if the kernel could not be started,
1526:../Generated_Code/tasks.c ****                 because there was not enough FreeRTOS heap to create the idle task
1527:../Generated_Code/tasks.c ****                 or the timer task. */
1528:../Generated_Code/tasks.c ****                 configASSERT( xReturn );
 1577              		.loc 1 1528 0
 1578 0044 7B68     		ldr	r3, [r7, #4]
 1579 0046 002B     		cmp	r3, #0
 1580 0048 01D1     		bne	.L105
 1581              		.loc 1 1528 0 is_stmt 0
 1582              	@ 1528 "../Generated_Code/tasks.c" 1
 1583 004a 72B6     		cpsid i
 1584              	@ 0 "" 2
 1585              		.code	16
 1586              	.L108:
 1587              		.loc 1 1528 0
 1588 004c FEE7     		b	.L108
 1589              	.L105:
 1590              	.LBE14:
1529:../Generated_Code/tasks.c ****         }
1530:../Generated_Code/tasks.c **** }
 1591              		.loc 1 1530 0 is_stmt 1
 1592 004e BD46     		mov	sp, r7
 1593 0050 02B0     		add	sp, sp, #8
 1594              		@ sp needed for prologue
 1595 0052 80BD     		pop	{r7, pc}
 1596              	.L110:
 1597              		.align	2
 1598              	.L109:
 1599 0054 00000000 		.word	_ZL11prvIdleTaskPv
 1600 0058 00000000 		.word	.LC32
 1601 005c 00000000 		.word	_ZL17xSchedulerRunning
 1602 0060 00000000 		.word	_ZL10xTickCount
 1603              		.cfi_endproc
 1604              	.LFE18:
 1606              		.section	.text.vTaskEndScheduler,"ax",%progbits
 1607              		.align	2
 1608              		.global	vTaskEndScheduler
 1609              		.code	16
 1610              		.thumb_func
 1612              	vTaskEndScheduler:
 1613              	.LFB19:
1531:../Generated_Code/tasks.c **** /*-----------------------------------------------------------*/
1532:../Generated_Code/tasks.c **** 
1533:../Generated_Code/tasks.c **** void vTaskEndScheduler( void )
1534:../Generated_Code/tasks.c **** {
 1614              		.loc 1 1534 0
 1615              		.cfi_startproc
 1616 0000 80B5     		push	{r7, lr}
 1617              	.LCFI30:
 1618              		.cfi_def_cfa_offset 8
 1619              		.cfi_offset 7, -8
 1620              		.cfi_offset 14, -4
 1621 0002 00AF     		add	r7, sp, #0
 1622              	.LCFI31:
 1623              		.cfi_def_cfa_register 7
1535:../Generated_Code/tasks.c ****         /* Stop the scheduler interrupts and call the portable scheduler end
1536:../Generated_Code/tasks.c ****         routine so the original ISRs can be restored if necessary.  The port
1537:../Generated_Code/tasks.c ****         layer must ensure interrupts enable     bit is left in the correct state. */
1538:../Generated_Code/tasks.c ****         portDISABLE_INTERRUPTS();
 1624              		.loc 1 1538 0
 1625              	@ 1538 "../Generated_Code/tasks.c" 1
 1626 0004 72B6     		cpsid i
 1627              	@ 0 "" 2
1539:../Generated_Code/tasks.c ****         xSchedulerRunning = pdFALSE;
 1628              		.loc 1 1539 0
 1629              		.code	16
 1630 0006 034B     		ldr	r3, .L112
 1631 0008 0022     		mov	r2, #0
 1632 000a 1A60     		str	r2, [r3]
1540:../Generated_Code/tasks.c ****         vPortEndScheduler();
 1633              		.loc 1 1540 0
 1634 000c FFF7FEFF 		bl	vPortEndScheduler
1541:../Generated_Code/tasks.c **** }
 1635              		.loc 1 1541 0
 1636 0010 BD46     		mov	sp, r7
 1637              		@ sp needed for prologue
 1638 0012 80BD     		pop	{r7, pc}
 1639              	.L113:
 1640              		.align	2
 1641              	.L112:
 1642 0014 00000000 		.word	_ZL17xSchedulerRunning
 1643              		.cfi_endproc
 1644              	.LFE19:
 1646              		.section	.text.vTaskSuspendAll,"ax",%progbits
 1647              		.align	2
 1648              		.global	vTaskSuspendAll
 1649              		.code	16
 1650              		.thumb_func
 1652              	vTaskSuspendAll:
 1653              	.LFB20:
1542:../Generated_Code/tasks.c **** /*----------------------------------------------------------*/
1543:../Generated_Code/tasks.c **** 
1544:../Generated_Code/tasks.c **** void vTaskSuspendAll( void )
1545:../Generated_Code/tasks.c **** {
 1654              		.loc 1 1545 0
 1655              		.cfi_startproc
 1656 0000 80B5     		push	{r7, lr}
 1657              	.LCFI32:
 1658              		.cfi_def_cfa_offset 8
 1659              		.cfi_offset 7, -8
 1660              		.cfi_offset 14, -4
 1661 0002 00AF     		add	r7, sp, #0
 1662              	.LCFI33:
 1663              		.cfi_def_cfa_register 7
1546:../Generated_Code/tasks.c ****         /* A critical section is not required as the variable is of type
1547:../Generated_Code/tasks.c ****         BaseType_t.  Please read Richard Barry's reply in the following link to a
1548:../Generated_Code/tasks.c ****         post in the FreeRTOS support forum before reporting this as a bug! -
1549:../Generated_Code/tasks.c ****         http://goo.gl/wu4acr */
1550:../Generated_Code/tasks.c ****         ++uxSchedulerSuspended;
 1664              		.loc 1 1550 0
 1665 0004 034B     		ldr	r3, .L115
 1666 0006 1B68     		ldr	r3, [r3]
 1667 0008 5A1C     		add	r2, r3, #1
 1668 000a 024B     		ldr	r3, .L115
 1669 000c 1A60     		str	r2, [r3]
1551:../Generated_Code/tasks.c **** }
 1670              		.loc 1 1551 0
 1671 000e BD46     		mov	sp, r7
 1672              		@ sp needed for prologue
 1673 0010 80BD     		pop	{r7, pc}
 1674              	.L116:
 1675 0012 C046     		.align	2
 1676              	.L115:
 1677 0014 00000000 		.word	_ZL20uxSchedulerSuspended
 1678              		.cfi_endproc
 1679              	.LFE20:
 1681              		.section	.text.xTaskResumeAll,"ax",%progbits
 1682              		.align	2
 1683              		.global	xTaskResumeAll
 1684              		.code	16
 1685              		.thumb_func
 1687              	xTaskResumeAll:
 1688              	.LFB21:
1552:../Generated_Code/tasks.c **** /*----------------------------------------------------------*/
1553:../Generated_Code/tasks.c **** 
1554:../Generated_Code/tasks.c **** #if ( configUSE_TICKLESS_IDLE != 0 )
1555:../Generated_Code/tasks.c **** 
1556:../Generated_Code/tasks.c ****         static TickType_t prvGetExpectedIdleTime( void )
1557:../Generated_Code/tasks.c ****         {
1558:../Generated_Code/tasks.c ****         TickType_t xReturn;
1559:../Generated_Code/tasks.c **** 
1560:../Generated_Code/tasks.c ****                 if( pxCurrentTCB->uxPriority > tskIDLE_PRIORITY )
1561:../Generated_Code/tasks.c ****                 {
1562:../Generated_Code/tasks.c ****                         xReturn = 0;
1563:../Generated_Code/tasks.c ****                 }
1564:../Generated_Code/tasks.c ****                 else if( listCURRENT_LIST_LENGTH( &( pxReadyTasksLists[ tskIDLE_PRIORITY ] ) ) > 1 
1565:../Generated_Code/tasks.c ****                 {
1566:../Generated_Code/tasks.c ****                         /* There are other idle priority tasks in the ready state.  If
1567:../Generated_Code/tasks.c ****                         time slicing is used then the very next tick interrupt must be
1568:../Generated_Code/tasks.c ****                         processed. */
1569:../Generated_Code/tasks.c ****                         xReturn = 0;
1570:../Generated_Code/tasks.c ****                 }
1571:../Generated_Code/tasks.c ****                 else
1572:../Generated_Code/tasks.c ****                 {
1573:../Generated_Code/tasks.c ****                         xReturn = xNextTaskUnblockTime - xTickCount;
1574:../Generated_Code/tasks.c ****                 }
1575:../Generated_Code/tasks.c **** 
1576:../Generated_Code/tasks.c ****                 return xReturn;
1577:../Generated_Code/tasks.c ****         }
1578:../Generated_Code/tasks.c **** 
1579:../Generated_Code/tasks.c **** #endif /* configUSE_TICKLESS_IDLE */
1580:../Generated_Code/tasks.c **** /*----------------------------------------------------------*/
1581:../Generated_Code/tasks.c **** 
1582:../Generated_Code/tasks.c **** BaseType_t xTaskResumeAll( void )
1583:../Generated_Code/tasks.c **** {
 1689              		.loc 1 1583 0
 1690              		.cfi_startproc
 1691 0000 80B5     		push	{r7, lr}
 1692              	.LCFI34:
 1693              		.cfi_def_cfa_offset 8
 1694              		.cfi_offset 7, -8
 1695              		.cfi_offset 14, -4
 1696 0002 82B0     		sub	sp, sp, #8
 1697              	.LCFI35:
 1698              		.cfi_def_cfa_offset 16
 1699 0004 00AF     		add	r7, sp, #0
 1700              	.LCFI36:
 1701              		.cfi_def_cfa_register 7
 1702              	.LBB15:
1584:../Generated_Code/tasks.c **** TCB_t *pxTCB;
1585:../Generated_Code/tasks.c **** BaseType_t xAlreadyYielded = pdFALSE;
 1703              		.loc 1 1585 0
 1704 0006 0023     		mov	r3, #0
 1705 0008 7B60     		str	r3, [r7, #4]
1586:../Generated_Code/tasks.c **** 
1587:../Generated_Code/tasks.c ****         /* If uxSchedulerSuspended is zero then this function does not match a
1588:../Generated_Code/tasks.c ****         previous call to vTaskSuspendAll(). */
1589:../Generated_Code/tasks.c ****         configASSERT( uxSchedulerSuspended );
 1706              		.loc 1 1589 0
 1707 000a 484B     		ldr	r3, .L129
 1708 000c 1B68     		ldr	r3, [r3]
 1709 000e 5A42     		neg	r2, r3
 1710 0010 5341     		adc	r3, r3, r2
 1711 0012 DBB2     		uxtb	r3, r3
 1712 0014 002B     		cmp	r3, #0
 1713 0016 01D0     		beq	.L118
 1714              		.loc 1 1589 0 is_stmt 0
 1715              	@ 1589 "../Generated_Code/tasks.c" 1
 1716 0018 72B6     		cpsid i
 1717              	@ 0 "" 2
 1718              		.code	16
 1719              	.L119:
 1720              		.loc 1 1589 0
 1721 001a FEE7     		b	.L119
 1722              	.L118:
1590:../Generated_Code/tasks.c **** 
1591:../Generated_Code/tasks.c ****         /* It is possible that an ISR caused a task to be removed from an event
1592:../Generated_Code/tasks.c ****         list while the scheduler was suspended.  If this was the case then the
1593:../Generated_Code/tasks.c ****         removed task will have been added to the xPendingReadyList.  Once the
1594:../Generated_Code/tasks.c ****         scheduler has been resumed it is safe to move all the pending ready
1595:../Generated_Code/tasks.c ****         tasks from this list into their appropriate ready list. */
1596:../Generated_Code/tasks.c ****         taskENTER_CRITICAL();
 1723              		.loc 1 1596 0 is_stmt 1
 1724 001c FFF7FEFF 		bl	vPortEnterCritical
1597:../Generated_Code/tasks.c ****         {
1598:../Generated_Code/tasks.c ****                 --uxSchedulerSuspended;
 1725              		.loc 1 1598 0
 1726 0020 424B     		ldr	r3, .L129
 1727 0022 1B68     		ldr	r3, [r3]
 1728 0024 5A1E     		sub	r2, r3, #1
 1729 0026 414B     		ldr	r3, .L129
 1730 0028 1A60     		str	r2, [r3]
1599:../Generated_Code/tasks.c **** 
1600:../Generated_Code/tasks.c ****                 if( uxSchedulerSuspended == ( UBaseType_t ) pdFALSE )
 1731              		.loc 1 1600 0
 1732 002a 404B     		ldr	r3, .L129
 1733 002c 1B68     		ldr	r3, [r3]
 1734 002e 5A42     		neg	r2, r3
 1735 0030 5341     		adc	r3, r3, r2
 1736 0032 DBB2     		uxtb	r3, r3
 1737 0034 002B     		cmp	r3, #0
 1738 0036 00D1     		bne	.LCB1381
 1739 0038 71E0     		b	.L120	@long jump
 1740              	.LCB1381:
1601:../Generated_Code/tasks.c ****                 {
1602:../Generated_Code/tasks.c ****                         if( uxCurrentNumberOfTasks > ( UBaseType_t ) 0U )
 1741              		.loc 1 1602 0
 1742 003a 3D4B     		ldr	r3, .L129+4
 1743 003c 1B68     		ldr	r3, [r3]
 1744 003e 5A1E     		sub	r2, r3, #1
 1745 0040 9341     		sbc	r3, r3, r2
 1746 0042 DBB2     		uxtb	r3, r3
 1747 0044 002B     		cmp	r3, #0
 1748 0046 6AD0     		beq	.L120
1603:../Generated_Code/tasks.c ****                         {
1604:../Generated_Code/tasks.c ****                                 /* Move any readied tasks from the pending list into the
1605:../Generated_Code/tasks.c ****                                 appropriate ready list. */
1606:../Generated_Code/tasks.c ****                                 while( listLIST_IS_EMPTY( &xPendingReadyList ) == pdFALSE )
 1749              		.loc 1 1606 0
 1750 0048 37E0     		b	.L121
 1751              	.L123:
1607:../Generated_Code/tasks.c ****                                 {
1608:../Generated_Code/tasks.c ****                                         pxTCB = ( TCB_t * ) listGET_OWNER_OF_HEAD_ENTRY( ( &xPendin
 1752              		.loc 1 1608 0
 1753 004a 3A4B     		ldr	r3, .L129+8
 1754 004c DB68     		ldr	r3, [r3, #12]
 1755 004e DB68     		ldr	r3, [r3, #12]
 1756 0050 3B60     		str	r3, [r7]
1609:../Generated_Code/tasks.c ****                                         ( void ) uxListRemove( &( pxTCB->xEventListItem ) );
 1757              		.loc 1 1609 0
 1758 0052 3B68     		ldr	r3, [r7]
 1759 0054 1833     		add	r3, r3, #24
 1760 0056 181C     		mov	r0, r3
 1761 0058 FFF7FEFF 		bl	uxListRemove
1610:../Generated_Code/tasks.c ****                                         ( void ) uxListRemove( &( pxTCB->xGenericListItem ) );
 1762              		.loc 1 1610 0
 1763 005c 3B68     		ldr	r3, [r7]
 1764 005e 0433     		add	r3, r3, #4
 1765 0060 181C     		mov	r0, r3
 1766 0062 FFF7FEFF 		bl	uxListRemove
1611:../Generated_Code/tasks.c ****                                         prvAddTaskToReadyList( pxTCB );
 1767              		.loc 1 1611 0
 1768 0066 3B68     		ldr	r3, [r7]
 1769 0068 DA6A     		ldr	r2, [r3, #44]
 1770 006a 334B     		ldr	r3, .L129+12
 1771 006c 1B68     		ldr	r3, [r3]
 1772 006e 9342     		cmp	r3, r2
 1773 0070 9B41     		sbc	r3, r3, r3
 1774 0072 5B42     		neg	r3, r3
 1775 0074 DBB2     		uxtb	r3, r3
 1776 0076 002B     		cmp	r3, #0
 1777 0078 03D0     		beq	.L122
 1778              		.loc 1 1611 0 is_stmt 0
 1779 007a 3B68     		ldr	r3, [r7]
 1780 007c DA6A     		ldr	r2, [r3, #44]
 1781 007e 2E4B     		ldr	r3, .L129+12
 1782 0080 1A60     		str	r2, [r3]
 1783              	.L122:
 1784              		.loc 1 1611 0
 1785 0082 3B68     		ldr	r3, [r7]
 1786 0084 DA6A     		ldr	r2, [r3, #44]
 1787 0086 131C     		mov	r3, r2
 1788 0088 9B00     		lsl	r3, r3, #2
 1789 008a 9B18     		add	r3, r3, r2
 1790 008c 9B00     		lsl	r3, r3, #2
 1791 008e 2B4A     		ldr	r2, .L129+16
 1792 0090 9A18     		add	r2, r3, r2
 1793 0092 3B68     		ldr	r3, [r7]
 1794 0094 0433     		add	r3, r3, #4
 1795 0096 101C     		mov	r0, r2
 1796 0098 191C     		mov	r1, r3
 1797 009a FFF7FEFF 		bl	vListInsertEnd
1612:../Generated_Code/tasks.c **** 
1613:../Generated_Code/tasks.c ****                                         /* If we have moved a task that has a priority higher than
1614:../Generated_Code/tasks.c ****                                         the current task then we should yield. */
1615:../Generated_Code/tasks.c ****                                         if( pxTCB->uxPriority >= pxCurrentTCB->uxPriority )
 1798              		.loc 1 1615 0 is_stmt 1
 1799 009e 3B68     		ldr	r3, [r7]
 1800 00a0 D96A     		ldr	r1, [r3, #44]
 1801 00a2 274B     		ldr	r3, .L129+20
 1802 00a4 1B68     		ldr	r3, [r3]
 1803 00a6 DA6A     		ldr	r2, [r3, #44]
 1804 00a8 0023     		mov	r3, #0
 1805 00aa 9142     		cmp	r1, r2
 1806 00ac 5B41     		adc	r3, r3, r3
 1807 00ae DBB2     		uxtb	r3, r3
 1808 00b0 002B     		cmp	r3, #0
 1809 00b2 02D0     		beq	.L121
1616:../Generated_Code/tasks.c ****                                         {
1617:../Generated_Code/tasks.c ****                                                 xYieldPending = pdTRUE;
 1810              		.loc 1 1617 0
 1811 00b4 234B     		ldr	r3, .L129+24
 1812 00b6 0122     		mov	r2, #1
 1813 00b8 1A60     		str	r2, [r3]
 1814              	.L121:
1606:../Generated_Code/tasks.c ****                                 while( listLIST_IS_EMPTY( &xPendingReadyList ) == pdFALSE )
 1815              		.loc 1 1606 0
 1816 00ba 1E4B     		ldr	r3, .L129+8
 1817 00bc 1B68     		ldr	r3, [r3]
 1818 00be 5A1E     		sub	r2, r3, #1
 1819 00c0 9341     		sbc	r3, r3, r2
 1820 00c2 DBB2     		uxtb	r3, r3
 1821 00c4 002B     		cmp	r3, #0
 1822 00c6 C0D1     		bne	.L123
1618:../Generated_Code/tasks.c ****                                         }
1619:../Generated_Code/tasks.c ****                                         else
1620:../Generated_Code/tasks.c ****                                         {
1621:../Generated_Code/tasks.c ****                                                 mtCOVERAGE_TEST_MARKER();
1622:../Generated_Code/tasks.c ****                                         }
1623:../Generated_Code/tasks.c ****                                 }
1624:../Generated_Code/tasks.c **** 
1625:../Generated_Code/tasks.c ****                                 /* If any ticks occurred while the scheduler was suspended then
1626:../Generated_Code/tasks.c ****                                 they should be processed now.  This ensures the tick count does
1627:../Generated_Code/tasks.c ****                                 not     slip, and that any delayed tasks are resumed at the correct
1628:../Generated_Code/tasks.c ****                                 time. */
1629:../Generated_Code/tasks.c ****                                 if( uxPendedTicks > ( UBaseType_t ) 0U )
 1823              		.loc 1 1629 0
 1824 00c8 1F4B     		ldr	r3, .L129+28
 1825 00ca 1B68     		ldr	r3, [r3]
 1826 00cc 5A1E     		sub	r2, r3, #1
 1827 00ce 9341     		sbc	r3, r3, r2
 1828 00d0 DBB2     		uxtb	r3, r3
 1829 00d2 002B     		cmp	r3, #0
 1830 00d4 17D0     		beq	.L124
1630:../Generated_Code/tasks.c ****                                 {
1631:../Generated_Code/tasks.c ****                                         while( uxPendedTicks > ( UBaseType_t ) 0U )
 1831              		.loc 1 1631 0
 1832 00d6 0FE0     		b	.L125
 1833              	.L127:
1632:../Generated_Code/tasks.c ****                                         {
1633:../Generated_Code/tasks.c ****                                                 if( xTaskIncrementTick() != pdFALSE )
 1834              		.loc 1 1633 0
 1835 00d8 FFF7FEFF 		bl	xTaskIncrementTick
 1836 00dc 031C     		mov	r3, r0
 1837 00de 5A1E     		sub	r2, r3, #1
 1838 00e0 9341     		sbc	r3, r3, r2
 1839 00e2 DBB2     		uxtb	r3, r3
 1840 00e4 002B     		cmp	r3, #0
 1841 00e6 02D0     		beq	.L126
1634:../Generated_Code/tasks.c ****                                                 {
1635:../Generated_Code/tasks.c ****                                                         xYieldPending = pdTRUE;
 1842              		.loc 1 1635 0
 1843 00e8 164B     		ldr	r3, .L129+24
 1844 00ea 0122     		mov	r2, #1
 1845 00ec 1A60     		str	r2, [r3]
 1846              	.L126:
1636:../Generated_Code/tasks.c ****                                                 }
1637:../Generated_Code/tasks.c ****                                                 else
1638:../Generated_Code/tasks.c ****                                                 {
1639:../Generated_Code/tasks.c ****                                                         mtCOVERAGE_TEST_MARKER();
1640:../Generated_Code/tasks.c ****                                                 }
1641:../Generated_Code/tasks.c ****                                                 --uxPendedTicks;
 1847              		.loc 1 1641 0
 1848 00ee 164B     		ldr	r3, .L129+28
 1849 00f0 1B68     		ldr	r3, [r3]
 1850 00f2 5A1E     		sub	r2, r3, #1
 1851 00f4 144B     		ldr	r3, .L129+28
 1852 00f6 1A60     		str	r2, [r3]
 1853              	.L125:
1631:../Generated_Code/tasks.c ****                                         while( uxPendedTicks > ( UBaseType_t ) 0U )
 1854              		.loc 1 1631 0
 1855 00f8 134B     		ldr	r3, .L129+28
 1856 00fa 1B68     		ldr	r3, [r3]
 1857 00fc 5A1E     		sub	r2, r3, #1
 1858 00fe 9341     		sbc	r3, r3, r2
 1859 0100 DBB2     		uxtb	r3, r3
 1860 0102 002B     		cmp	r3, #0
 1861 0104 E8D1     		bne	.L127
 1862              	.L124:
1642:../Generated_Code/tasks.c ****                                         }
1643:../Generated_Code/tasks.c ****                                 }
1644:../Generated_Code/tasks.c ****                                 else
1645:../Generated_Code/tasks.c ****                                 {
1646:../Generated_Code/tasks.c ****                                         mtCOVERAGE_TEST_MARKER();
1647:../Generated_Code/tasks.c ****                                 }
1648:../Generated_Code/tasks.c **** 
1649:../Generated_Code/tasks.c ****                                 if( xYieldPending == pdTRUE )
 1863              		.loc 1 1649 0
 1864 0106 0F4B     		ldr	r3, .L129+24
 1865 0108 1B68     		ldr	r3, [r3]
 1866 010a 013B     		sub	r3, r3, #1
 1867 010c 5A42     		neg	r2, r3
 1868 010e 5341     		adc	r3, r3, r2
 1869 0110 DBB2     		uxtb	r3, r3
 1870 0112 002B     		cmp	r3, #0
 1871 0114 03D0     		beq	.L120
1650:../Generated_Code/tasks.c ****                                 {
1651:../Generated_Code/tasks.c ****                                         #if( configUSE_PREEMPTION != 0 )
1652:../Generated_Code/tasks.c ****                                         {
1653:../Generated_Code/tasks.c ****                                                 xAlreadyYielded = pdTRUE;
 1872              		.loc 1 1653 0
 1873 0116 0123     		mov	r3, #1
 1874 0118 7B60     		str	r3, [r7, #4]
1654:../Generated_Code/tasks.c ****                                         }
1655:../Generated_Code/tasks.c ****                                         #endif
1656:../Generated_Code/tasks.c ****                                         taskYIELD_IF_USING_PREEMPTION();
 1875              		.loc 1 1656 0
 1876 011a FFF7FEFF 		bl	vPortYieldFromISR
 1877              	.L120:
1657:../Generated_Code/tasks.c ****                                 }
1658:../Generated_Code/tasks.c ****                                 else
1659:../Generated_Code/tasks.c ****                                 {
1660:../Generated_Code/tasks.c ****                                         mtCOVERAGE_TEST_MARKER();
1661:../Generated_Code/tasks.c ****                                 }
1662:../Generated_Code/tasks.c ****                         }
1663:../Generated_Code/tasks.c ****                 }
1664:../Generated_Code/tasks.c ****                 else
1665:../Generated_Code/tasks.c ****                 {
1666:../Generated_Code/tasks.c ****                         mtCOVERAGE_TEST_MARKER();
1667:../Generated_Code/tasks.c ****                 }
1668:../Generated_Code/tasks.c ****         }
1669:../Generated_Code/tasks.c ****         taskEXIT_CRITICAL();
 1878              		.loc 1 1669 0
 1879 011e FFF7FEFF 		bl	vPortExitCritical
1670:../Generated_Code/tasks.c **** 
1671:../Generated_Code/tasks.c ****         return xAlreadyYielded;
 1880              		.loc 1 1671 0
 1881 0122 7B68     		ldr	r3, [r7, #4]
 1882              	.LBE15:
1672:../Generated_Code/tasks.c **** }
 1883              		.loc 1 1672 0
 1884 0124 181C     		mov	r0, r3
 1885 0126 BD46     		mov	sp, r7
 1886 0128 02B0     		add	sp, sp, #8
 1887              		@ sp needed for prologue
 1888 012a 80BD     		pop	{r7, pc}
 1889              	.L130:
 1890              		.align	2
 1891              	.L129:
 1892 012c 00000000 		.word	_ZL20uxSchedulerSuspended
 1893 0130 00000000 		.word	_ZL22uxCurrentNumberOfTasks
 1894 0134 00000000 		.word	_ZL17xPendingReadyList
 1895 0138 00000000 		.word	_ZL18uxTopReadyPriority
 1896 013c 00000000 		.word	_ZL17pxReadyTasksLists
 1897 0140 00000000 		.word	pxCurrentTCB
 1898 0144 00000000 		.word	_ZL13xYieldPending
 1899 0148 00000000 		.word	_ZL13uxPendedTicks
 1900              		.cfi_endproc
 1901              	.LFE21:
 1903              		.section	.text.xTaskGetTickCount,"ax",%progbits
 1904              		.align	2
 1905              		.global	xTaskGetTickCount
 1906              		.code	16
 1907              		.thumb_func
 1909              	xTaskGetTickCount:
 1910              	.LFB22:
1673:../Generated_Code/tasks.c **** /*-----------------------------------------------------------*/
1674:../Generated_Code/tasks.c **** 
1675:../Generated_Code/tasks.c **** TickType_t xTaskGetTickCount( void )
1676:../Generated_Code/tasks.c **** {
 1911              		.loc 1 1676 0
 1912              		.cfi_startproc
 1913 0000 80B5     		push	{r7, lr}
 1914              	.LCFI37:
 1915              		.cfi_def_cfa_offset 8
 1916              		.cfi_offset 7, -8
 1917              		.cfi_offset 14, -4
 1918 0002 82B0     		sub	sp, sp, #8
 1919              	.LCFI38:
 1920              		.cfi_def_cfa_offset 16
 1921 0004 00AF     		add	r7, sp, #0
 1922              	.LCFI39:
 1923              		.cfi_def_cfa_register 7
 1924              	.LBB16:
1677:../Generated_Code/tasks.c **** TickType_t xTicks;
1678:../Generated_Code/tasks.c **** 
1679:../Generated_Code/tasks.c ****         /* Critical section required if running on a 16 bit processor. */
1680:../Generated_Code/tasks.c ****         taskENTER_CRITICAL();
 1925              		.loc 1 1680 0
 1926 0006 FFF7FEFF 		bl	vPortEnterCritical
1681:../Generated_Code/tasks.c ****         {
1682:../Generated_Code/tasks.c ****                 xTicks = xTickCount;
 1927              		.loc 1 1682 0
 1928 000a 054B     		ldr	r3, .L133
 1929 000c 1B68     		ldr	r3, [r3]
 1930 000e 7B60     		str	r3, [r7, #4]
1683:../Generated_Code/tasks.c ****         }
1684:../Generated_Code/tasks.c ****         taskEXIT_CRITICAL();
 1931              		.loc 1 1684 0
 1932 0010 FFF7FEFF 		bl	vPortExitCritical
1685:../Generated_Code/tasks.c **** 
1686:../Generated_Code/tasks.c ****         return xTicks;
 1933              		.loc 1 1686 0
 1934 0014 7B68     		ldr	r3, [r7, #4]
 1935              	.LBE16:
1687:../Generated_Code/tasks.c **** }
 1936              		.loc 1 1687 0
 1937 0016 181C     		mov	r0, r3
 1938 0018 BD46     		mov	sp, r7
 1939 001a 02B0     		add	sp, sp, #8
 1940              		@ sp needed for prologue
 1941 001c 80BD     		pop	{r7, pc}
 1942              	.L134:
 1943 001e C046     		.align	2
 1944              	.L133:
 1945 0020 00000000 		.word	_ZL10xTickCount
 1946              		.cfi_endproc
 1947              	.LFE22:
 1949              		.section	.text.xTaskGetTickCountFromISR,"ax",%progbits
 1950              		.align	2
 1951              		.global	xTaskGetTickCountFromISR
 1952              		.code	16
 1953              		.thumb_func
 1955              	xTaskGetTickCountFromISR:
 1956              	.LFB23:
1688:../Generated_Code/tasks.c **** /*-----------------------------------------------------------*/
1689:../Generated_Code/tasks.c **** 
1690:../Generated_Code/tasks.c **** TickType_t xTaskGetTickCountFromISR( void )
1691:../Generated_Code/tasks.c **** {
 1957              		.loc 1 1691 0
 1958              		.cfi_startproc
 1959 0000 80B5     		push	{r7, lr}
 1960              	.LCFI40:
 1961              		.cfi_def_cfa_offset 8
 1962              		.cfi_offset 7, -8
 1963              		.cfi_offset 14, -4
 1964 0002 82B0     		sub	sp, sp, #8
 1965              	.LCFI41:
 1966              		.cfi_def_cfa_offset 16
 1967 0004 00AF     		add	r7, sp, #0
 1968              	.LCFI42:
 1969              		.cfi_def_cfa_register 7
 1970              	.LBB17:
1692:../Generated_Code/tasks.c **** TickType_t xReturn;
1693:../Generated_Code/tasks.c **** UBaseType_t uxSavedInterruptStatus;
1694:../Generated_Code/tasks.c **** 
1695:../Generated_Code/tasks.c ****         /* RTOS ports that support interrupt nesting have the concept of a maximum
1696:../Generated_Code/tasks.c ****         system call (or maximum API call) interrupt priority.  Interrupts that are
1697:../Generated_Code/tasks.c ****         above the maximum system call priority are kept permanently enabled, even
1698:../Generated_Code/tasks.c ****         when the RTOS kernel is in a critical section, but cannot make any calls to
1699:../Generated_Code/tasks.c ****         FreeRTOS API functions.  If configASSERT() is defined in FreeRTOSConfig.h
1700:../Generated_Code/tasks.c ****         then portASSERT_IF_INTERRUPT_PRIORITY_INVALID() will result in an assertion
1701:../Generated_Code/tasks.c ****         failure if a FreeRTOS API function is called from an interrupt that has been
1702:../Generated_Code/tasks.c ****         assigned a priority above the configured maximum system call priority.
1703:../Generated_Code/tasks.c ****         Only FreeRTOS functions that end in FromISR can be called from interrupts
1704:../Generated_Code/tasks.c ****         that have been assigned a priority at or (logically) below the maximum
1705:../Generated_Code/tasks.c ****         system call     interrupt priority.  FreeRTOS maintains a separate interrupt
1706:../Generated_Code/tasks.c ****         safe API to ensure interrupt entry is as fast and as simple as possible.
1707:../Generated_Code/tasks.c ****         More information (albeit Cortex-M specific) is provided on the following
1708:../Generated_Code/tasks.c ****         link: http://www.freertos.org/RTOS-Cortex-M3-M4.html */
1709:../Generated_Code/tasks.c ****         portASSERT_IF_INTERRUPT_PRIORITY_INVALID();
1710:../Generated_Code/tasks.c **** 
1711:../Generated_Code/tasks.c ****         uxSavedInterruptStatus = portSET_INTERRUPT_MASK_FROM_ISR();
 1971              		.loc 1 1711 0
 1972 0006 0023     		mov	r3, #0
 1973 0008 7B60     		str	r3, [r7, #4]
 1974              	@ 1711 "../Generated_Code/tasks.c" 1
 1975 000a 72B6     		cpsid i
 1976              	@ 0 "" 2
1712:../Generated_Code/tasks.c ****         {
1713:../Generated_Code/tasks.c ****                 xReturn = xTickCount;
 1977              		.loc 1 1713 0
 1978              		.code	16
 1979 000c 044B     		ldr	r3, .L137
 1980 000e 1B68     		ldr	r3, [r3]
 1981 0010 3B60     		str	r3, [r7]
1714:../Generated_Code/tasks.c ****         }
1715:../Generated_Code/tasks.c ****         portCLEAR_INTERRUPT_MASK_FROM_ISR( uxSavedInterruptStatus );
 1982              		.loc 1 1715 0
 1983              	@ 1715 "../Generated_Code/tasks.c" 1
 1984 0012 62B6     		cpsie i
 1985              	@ 0 "" 2
1716:../Generated_Code/tasks.c **** 
1717:../Generated_Code/tasks.c ****         return xReturn;
 1986              		.loc 1 1717 0
 1987              		.code	16
 1988 0014 3B68     		ldr	r3, [r7]
 1989              	.LBE17:
1718:../Generated_Code/tasks.c **** }
 1990              		.loc 1 1718 0
 1991 0016 181C     		mov	r0, r3
 1992 0018 BD46     		mov	sp, r7
 1993 001a 02B0     		add	sp, sp, #8
 1994              		@ sp needed for prologue
 1995 001c 80BD     		pop	{r7, pc}
 1996              	.L138:
 1997 001e C046     		.align	2
 1998              	.L137:
 1999 0020 00000000 		.word	_ZL10xTickCount
 2000              		.cfi_endproc
 2001              	.LFE23:
 2003              		.section	.text.uxTaskGetNumberOfTasks,"ax",%progbits
 2004              		.align	2
 2005              		.global	uxTaskGetNumberOfTasks
 2006              		.code	16
 2007              		.thumb_func
 2009              	uxTaskGetNumberOfTasks:
 2010              	.LFB24:
1719:../Generated_Code/tasks.c **** /*-----------------------------------------------------------*/
1720:../Generated_Code/tasks.c **** 
1721:../Generated_Code/tasks.c **** UBaseType_t uxTaskGetNumberOfTasks( void )
1722:../Generated_Code/tasks.c **** {
 2011              		.loc 1 1722 0
 2012              		.cfi_startproc
 2013 0000 80B5     		push	{r7, lr}
 2014              	.LCFI43:
 2015              		.cfi_def_cfa_offset 8
 2016              		.cfi_offset 7, -8
 2017              		.cfi_offset 14, -4
 2018 0002 00AF     		add	r7, sp, #0
 2019              	.LCFI44:
 2020              		.cfi_def_cfa_register 7
1723:../Generated_Code/tasks.c ****         /* A critical section is not required because the variables are of type
1724:../Generated_Code/tasks.c ****         BaseType_t. */
1725:../Generated_Code/tasks.c ****         return uxCurrentNumberOfTasks;
 2021              		.loc 1 1725 0
 2022 0004 024B     		ldr	r3, .L141
 2023 0006 1B68     		ldr	r3, [r3]
1726:../Generated_Code/tasks.c **** }
 2024              		.loc 1 1726 0
 2025 0008 181C     		mov	r0, r3
 2026 000a BD46     		mov	sp, r7
 2027              		@ sp needed for prologue
 2028 000c 80BD     		pop	{r7, pc}
 2029              	.L142:
 2030 000e C046     		.align	2
 2031              	.L141:
 2032 0010 00000000 		.word	_ZL22uxCurrentNumberOfTasks
 2033              		.cfi_endproc
 2034              	.LFE24:
 2036              		.section	.text.xTaskIncrementTick,"ax",%progbits
 2037              		.align	2
 2038              		.global	xTaskIncrementTick
 2039              		.code	16
 2040              		.thumb_func
 2042              	xTaskIncrementTick:
 2043              	.LFB25:
1727:../Generated_Code/tasks.c **** /*-----------------------------------------------------------*/
1728:../Generated_Code/tasks.c **** 
1729:../Generated_Code/tasks.c **** #if ( INCLUDE_pcTaskGetTaskName == 1 )
1730:../Generated_Code/tasks.c **** 
1731:../Generated_Code/tasks.c ****         char *pcTaskGetTaskName( TaskHandle_t xTaskToQuery )
1732:../Generated_Code/tasks.c ****         {
1733:../Generated_Code/tasks.c ****         TCB_t *pxTCB;
1734:../Generated_Code/tasks.c **** 
1735:../Generated_Code/tasks.c ****                 /* If null is passed in here then the name of the calling task is being queried. */
1736:../Generated_Code/tasks.c ****                 pxTCB = prvGetTCBFromHandle( xTaskToQuery );
1737:../Generated_Code/tasks.c ****                 configASSERT( pxTCB );
1738:../Generated_Code/tasks.c ****                 return &( pxTCB->pcTaskName[ 0 ] );
1739:../Generated_Code/tasks.c ****         }
1740:../Generated_Code/tasks.c **** 
1741:../Generated_Code/tasks.c **** #endif /* INCLUDE_pcTaskGetTaskName */
1742:../Generated_Code/tasks.c **** /*-----------------------------------------------------------*/
1743:../Generated_Code/tasks.c **** 
1744:../Generated_Code/tasks.c **** #if ( configUSE_TRACE_FACILITY == 1 )
1745:../Generated_Code/tasks.c **** 
1746:../Generated_Code/tasks.c ****         UBaseType_t uxTaskGetSystemState( TaskStatus_t * const pxTaskStatusArray, const UBaseType_t
1747:../Generated_Code/tasks.c ****         {
1748:../Generated_Code/tasks.c ****         UBaseType_t uxTask = 0, uxQueue = configMAX_PRIORITIES;
1749:../Generated_Code/tasks.c **** 
1750:../Generated_Code/tasks.c ****                 vTaskSuspendAll();
1751:../Generated_Code/tasks.c ****                 {
1752:../Generated_Code/tasks.c ****                         /* Is there a space in the array for each task in the system? */
1753:../Generated_Code/tasks.c ****                         if( uxArraySize >= uxCurrentNumberOfTasks )
1754:../Generated_Code/tasks.c ****                         {
1755:../Generated_Code/tasks.c ****                                 /* Fill in an TaskStatus_t structure with information on each
1756:../Generated_Code/tasks.c ****                                 task in the Ready state. */
1757:../Generated_Code/tasks.c ****                                 do
1758:../Generated_Code/tasks.c ****                                 {
1759:../Generated_Code/tasks.c ****                                         uxQueue--;
1760:../Generated_Code/tasks.c ****                                         uxTask += prvListTaskWithinSingleList( &( pxTaskStatusArray
1761:../Generated_Code/tasks.c **** 
1762:../Generated_Code/tasks.c ****                                 } while( uxQueue > ( UBaseType_t ) tskIDLE_PRIORITY ); /*lint !e961
1763:../Generated_Code/tasks.c **** 
1764:../Generated_Code/tasks.c ****                                 /* Fill in an TaskStatus_t structure with information on each
1765:../Generated_Code/tasks.c ****                                 task in the Blocked state. */
1766:../Generated_Code/tasks.c ****                                 uxTask += prvListTaskWithinSingleList( &( pxTaskStatusArray[ uxTask
1767:../Generated_Code/tasks.c ****                                 uxTask += prvListTaskWithinSingleList( &( pxTaskStatusArray[ uxTask
1768:../Generated_Code/tasks.c **** 
1769:../Generated_Code/tasks.c ****                                 #if( INCLUDE_vTaskDelete == 1 )
1770:../Generated_Code/tasks.c ****                                 {
1771:../Generated_Code/tasks.c ****                                         /* Fill in an TaskStatus_t structure with information on
1772:../Generated_Code/tasks.c ****                                         each task that has been deleted but not yet cleaned up. */
1773:../Generated_Code/tasks.c ****                                         uxTask += prvListTaskWithinSingleList( &( pxTaskStatusArray
1774:../Generated_Code/tasks.c ****                                 }
1775:../Generated_Code/tasks.c ****                                 #endif
1776:../Generated_Code/tasks.c **** 
1777:../Generated_Code/tasks.c ****                                 #if ( INCLUDE_vTaskSuspend == 1 )
1778:../Generated_Code/tasks.c ****                                 {
1779:../Generated_Code/tasks.c ****                                         /* Fill in an TaskStatus_t structure with information on
1780:../Generated_Code/tasks.c ****                                         each task in the Suspended state. */
1781:../Generated_Code/tasks.c ****                                         uxTask += prvListTaskWithinSingleList( &( pxTaskStatusArray
1782:../Generated_Code/tasks.c ****                                 }
1783:../Generated_Code/tasks.c ****                                 #endif
1784:../Generated_Code/tasks.c **** 
1785:../Generated_Code/tasks.c ****                                 #if ( configGENERATE_RUN_TIME_STATS == 1)
1786:../Generated_Code/tasks.c ****                                 {
1787:../Generated_Code/tasks.c ****                                         if( pulTotalRunTime != NULL )
1788:../Generated_Code/tasks.c ****                                         {
1789:../Generated_Code/tasks.c ****                                                 #ifdef portALT_GET_RUN_TIME_COUNTER_VALUE
1790:../Generated_Code/tasks.c ****                                                         portALT_GET_RUN_TIME_COUNTER_VALUE( ( *pulT
1791:../Generated_Code/tasks.c ****                                                 #else
1792:../Generated_Code/tasks.c ****                                                         *pulTotalRunTime = portGET_RUN_TIME_COUNTER
1793:../Generated_Code/tasks.c ****                                                 #endif
1794:../Generated_Code/tasks.c ****                                         }
1795:../Generated_Code/tasks.c ****                                 }
1796:../Generated_Code/tasks.c ****                                 #else
1797:../Generated_Code/tasks.c ****                                 {
1798:../Generated_Code/tasks.c ****                                         if( pulTotalRunTime != NULL )
1799:../Generated_Code/tasks.c ****                                         {
1800:../Generated_Code/tasks.c ****                                                 *pulTotalRunTime = 0;
1801:../Generated_Code/tasks.c ****                                         }
1802:../Generated_Code/tasks.c ****                                 }
1803:../Generated_Code/tasks.c ****                                 #endif
1804:../Generated_Code/tasks.c ****                         }
1805:../Generated_Code/tasks.c ****                         else
1806:../Generated_Code/tasks.c ****                         {
1807:../Generated_Code/tasks.c ****                                 mtCOVERAGE_TEST_MARKER();
1808:../Generated_Code/tasks.c ****                         }
1809:../Generated_Code/tasks.c ****                 }
1810:../Generated_Code/tasks.c ****                 ( void ) xTaskResumeAll();
1811:../Generated_Code/tasks.c **** 
1812:../Generated_Code/tasks.c ****                 return uxTask;
1813:../Generated_Code/tasks.c ****         }
1814:../Generated_Code/tasks.c **** 
1815:../Generated_Code/tasks.c **** #endif /* configUSE_TRACE_FACILITY */
1816:../Generated_Code/tasks.c **** /*----------------------------------------------------------*/
1817:../Generated_Code/tasks.c **** 
1818:../Generated_Code/tasks.c **** #if ( INCLUDE_xTaskGetIdleTaskHandle == 1 )
1819:../Generated_Code/tasks.c **** 
1820:../Generated_Code/tasks.c ****         TaskHandle_t xTaskGetIdleTaskHandle( void )
1821:../Generated_Code/tasks.c ****         {
1822:../Generated_Code/tasks.c ****                 /* If xTaskGetIdleTaskHandle() is called before the scheduler has been
1823:../Generated_Code/tasks.c ****                 started, then xIdleTaskHandle will be NULL. */
1824:../Generated_Code/tasks.c ****                 configASSERT( ( xIdleTaskHandle != NULL ) );
1825:../Generated_Code/tasks.c ****                 return xIdleTaskHandle;
1826:../Generated_Code/tasks.c ****         }
1827:../Generated_Code/tasks.c **** 
1828:../Generated_Code/tasks.c **** #endif /* INCLUDE_xTaskGetIdleTaskHandle */
1829:../Generated_Code/tasks.c **** /*----------------------------------------------------------*/
1830:../Generated_Code/tasks.c **** 
1831:../Generated_Code/tasks.c **** /* This conditional compilation should use inequality to 0, not equality to 1.
1832:../Generated_Code/tasks.c **** This is to ensure vTaskStepTick() is available when user defined low power mode
1833:../Generated_Code/tasks.c **** implementations require configUSE_TICKLESS_IDLE to be set to a value other than
1834:../Generated_Code/tasks.c **** 1. */
1835:../Generated_Code/tasks.c **** #if ( configUSE_TICKLESS_IDLE != 0 )
1836:../Generated_Code/tasks.c **** 
1837:../Generated_Code/tasks.c ****         void vTaskStepTick( const TickType_t xTicksToJump )
1838:../Generated_Code/tasks.c ****         {
1839:../Generated_Code/tasks.c ****                 /* Correct the tick count value after a period during which the tick
1840:../Generated_Code/tasks.c ****                 was suppressed.  Note this does *not* call the tick hook function for
1841:../Generated_Code/tasks.c ****                 each stepped tick. */
1842:../Generated_Code/tasks.c ****                 configASSERT( ( xTickCount + xTicksToJump ) <= xNextTaskUnblockTime );
1843:../Generated_Code/tasks.c ****                 xTickCount += xTicksToJump;
1844:../Generated_Code/tasks.c ****                 traceINCREASE_TICK_COUNT( xTicksToJump );
1845:../Generated_Code/tasks.c ****         }
1846:../Generated_Code/tasks.c **** 
1847:../Generated_Code/tasks.c **** #endif /* configUSE_TICKLESS_IDLE */
1848:../Generated_Code/tasks.c **** /*----------------------------------------------------------*/
1849:../Generated_Code/tasks.c **** 
1850:../Generated_Code/tasks.c **** BaseType_t xTaskIncrementTick( void )
1851:../Generated_Code/tasks.c **** {
 2044              		.loc 1 1851 0
 2045              		.cfi_startproc
 2046 0000 80B5     		push	{r7, lr}
 2047              	.LCFI45:
 2048              		.cfi_def_cfa_offset 8
 2049              		.cfi_offset 7, -8
 2050              		.cfi_offset 14, -4
 2051 0002 86B0     		sub	sp, sp, #24
 2052              	.LCFI46:
 2053              		.cfi_def_cfa_offset 32
 2054 0004 00AF     		add	r7, sp, #0
 2055              	.LCFI47:
 2056              		.cfi_def_cfa_register 7
 2057              	.LBB18:
1852:../Generated_Code/tasks.c **** TCB_t * pxTCB;
1853:../Generated_Code/tasks.c **** TickType_t xItemValue;
1854:../Generated_Code/tasks.c **** BaseType_t xSwitchRequired = pdFALSE;
 2058              		.loc 1 1854 0
 2059 0006 0023     		mov	r3, #0
 2060 0008 7B61     		str	r3, [r7, #20]
 2061              	.LBB19:
1855:../Generated_Code/tasks.c **** 
1856:../Generated_Code/tasks.c ****         /* Called by the portable layer each time a tick interrupt occurs.
1857:../Generated_Code/tasks.c ****         Increments the tick then checks to see if the new tick value will cause any
1858:../Generated_Code/tasks.c ****         tasks to be unblocked. */
1859:../Generated_Code/tasks.c ****         traceTASK_INCREMENT_TICK( xTickCount );
1860:../Generated_Code/tasks.c ****         if( uxSchedulerSuspended == ( UBaseType_t ) pdFALSE )
 2062              		.loc 1 1860 0
 2063 000a 614B     		ldr	r3, .L163
 2064 000c 1B68     		ldr	r3, [r3]
 2065 000e 5A42     		neg	r2, r3
 2066 0010 5341     		adc	r3, r3, r2
 2067 0012 DBB2     		uxtb	r3, r3
 2068 0014 002B     		cmp	r3, #0
 2069 0016 00D1     		bne	.LCB1664
 2070 0018 A4E0     		b	.L144	@long jump
 2071              	.LCB1664:
 2072              	.LBB20:
1861:../Generated_Code/tasks.c ****         {
1862:../Generated_Code/tasks.c ****                 /* Increment the RTOS tick, switching the delayed and overflowed
1863:../Generated_Code/tasks.c ****                 delayed lists if it wraps to 0. */
1864:../Generated_Code/tasks.c ****                 ++xTickCount;
 2073              		.loc 1 1864 0
 2074 001a 5E4B     		ldr	r3, .L163+4
 2075 001c 1B68     		ldr	r3, [r3]
 2076 001e 5A1C     		add	r2, r3, #1
 2077 0020 5C4B     		ldr	r3, .L163+4
 2078 0022 1A60     		str	r2, [r3]
 2079              	.LBB21:
1865:../Generated_Code/tasks.c **** 
1866:../Generated_Code/tasks.c ****                 {
1867:../Generated_Code/tasks.c ****                         /* Minor optimisation.  The tick count cannot change in this
1868:../Generated_Code/tasks.c ****                         block. */
1869:../Generated_Code/tasks.c ****                         const TickType_t xConstTickCount = xTickCount;
 2080              		.loc 1 1869 0
 2081 0024 5B4B     		ldr	r3, .L163+4
 2082 0026 1B68     		ldr	r3, [r3]
 2083 0028 3B61     		str	r3, [r7, #16]
 2084              	.LBB22:
1870:../Generated_Code/tasks.c **** 
1871:../Generated_Code/tasks.c ****                         if( xConstTickCount == ( TickType_t ) 0U )
 2085              		.loc 1 1871 0
 2086 002a 3B69     		ldr	r3, [r7, #16]
 2087 002c 002B     		cmp	r3, #0
 2088 002e 1AD1     		bne	.L145
 2089              	.LBB23:
 2090              	.LBB24:
1872:../Generated_Code/tasks.c ****                         {
1873:../Generated_Code/tasks.c ****                                 taskSWITCH_DELAYED_LISTS();
 2091              		.loc 1 1873 0
 2092 0030 594B     		ldr	r3, .L163+8
 2093 0032 1B68     		ldr	r3, [r3]
 2094 0034 1B68     		ldr	r3, [r3]
 2095 0036 5A1E     		sub	r2, r3, #1
 2096 0038 9341     		sbc	r3, r3, r2
 2097 003a DBB2     		uxtb	r3, r3
 2098 003c 002B     		cmp	r3, #0
 2099 003e 01D0     		beq	.L146
 2100              		.loc 1 1873 0 is_stmt 0
 2101              	@ 1873 "../Generated_Code/tasks.c" 1
 2102 0040 72B6     		cpsid i
 2103              	@ 0 "" 2
 2104              		.code	16
 2105              	.L147:
 2106              		.loc 1 1873 0
 2107 0042 FEE7     		b	.L147
 2108              	.L146:
 2109              		.loc 1 1873 0
 2110 0044 544B     		ldr	r3, .L163+8
 2111 0046 1B68     		ldr	r3, [r3]
 2112 0048 FB60     		str	r3, [r7, #12]
 2113 004a 544B     		ldr	r3, .L163+12
 2114 004c 1A68     		ldr	r2, [r3]
 2115 004e 524B     		ldr	r3, .L163+8
 2116 0050 1A60     		str	r2, [r3]
 2117 0052 524B     		ldr	r3, .L163+12
 2118 0054 FA68     		ldr	r2, [r7, #12]
 2119 0056 1A60     		str	r2, [r3]
 2120 0058 514B     		ldr	r3, .L163+16
 2121 005a 1B68     		ldr	r3, [r3]
 2122 005c 5A1C     		add	r2, r3, #1
 2123 005e 504B     		ldr	r3, .L163+16
 2124 0060 1A60     		str	r2, [r3]
 2125 0062 FFF7FEFF 		bl	_ZL27prvResetNextTaskUnblockTimev
 2126              	.L145:
 2127              	.LBE24:
 2128              	.LBE23:
 2129              	.LBE22:
1874:../Generated_Code/tasks.c ****                         }
1875:../Generated_Code/tasks.c ****                         else
1876:../Generated_Code/tasks.c ****                         {
1877:../Generated_Code/tasks.c ****                                 mtCOVERAGE_TEST_MARKER();
1878:../Generated_Code/tasks.c ****                         }
1879:../Generated_Code/tasks.c **** 
1880:../Generated_Code/tasks.c ****                         /* See if this tick has made a timeout expire.  Tasks are stored in
1881:../Generated_Code/tasks.c ****                         the     queue in the order of their wake time - meaning once one task
1882:../Generated_Code/tasks.c ****                         has been found whose block time has not expired there is no need to
1883:../Generated_Code/tasks.c ****                         look any further        down the list. */
1884:../Generated_Code/tasks.c ****                         if( xConstTickCount >= xNextTaskUnblockTime )
 2130              		.loc 1 1884 0 is_stmt 1
 2131 0066 4F4B     		ldr	r3, .L163+20
 2132 0068 1A68     		ldr	r2, [r3]
 2133 006a 3969     		ldr	r1, [r7, #16]
 2134 006c 0023     		mov	r3, #0
 2135 006e 9142     		cmp	r1, r2
 2136 0070 5B41     		adc	r3, r3, r3
 2137 0072 DBB2     		uxtb	r3, r3
 2138 0074 002B     		cmp	r3, #0
 2139 0076 59D0     		beq	.L148
 2140 0078 00E0     		b	.L157
 2141              	.L162:
1885:../Generated_Code/tasks.c ****                         {
1886:../Generated_Code/tasks.c ****                                 for( ;; )
 2142              		.loc 1 1886 0
 2143 007a C046     		mov	r8, r8
 2144              	.L157:
1887:../Generated_Code/tasks.c ****                                 {
1888:../Generated_Code/tasks.c ****                                         if( listLIST_IS_EMPTY( pxDelayedTaskList ) != pdFALSE )
 2145              		.loc 1 1888 0
 2146 007c 464B     		ldr	r3, .L163+8
 2147 007e 1B68     		ldr	r3, [r3]
 2148 0080 1B68     		ldr	r3, [r3]
 2149 0082 002B     		cmp	r3, #0
 2150 0084 01D1     		bne	.L149
 2151              		.loc 1 1888 0 is_stmt 0
 2152 0086 0123     		mov	r3, #1
 2153 0088 00E0     		b	.L150
 2154              	.L149:
 2155              		.loc 1 1888 0
 2156 008a 0023     		mov	r3, #0
 2157              	.L150:
 2158              		.loc 1 1888 0
 2159 008c 002B     		cmp	r3, #0
 2160 008e 04D0     		beq	.L151
1889:../Generated_Code/tasks.c ****                                         {
1890:../Generated_Code/tasks.c ****                                                 /* The delayed list is empty.  Set xNextTaskUnblock
1891:../Generated_Code/tasks.c ****                                                 to the maximum possible value so it is extremely
1892:../Generated_Code/tasks.c ****                                                 unlikely that the
1893:../Generated_Code/tasks.c ****                                                 if( xTickCount >= xNextTaskUnblockTime ) test will 
1894:../Generated_Code/tasks.c ****                                                 next time through. */
1895:../Generated_Code/tasks.c ****                                                 xNextTaskUnblockTime = portMAX_DELAY;
 2161              		.loc 1 1895 0 is_stmt 1
 2162 0090 444B     		ldr	r3, .L163+20
 2163 0092 0122     		mov	r2, #1
 2164 0094 5242     		neg	r2, r2
 2165 0096 1A60     		str	r2, [r3]
1896:../Generated_Code/tasks.c ****                                                 break;
 2166              		.loc 1 1896 0
 2167 0098 48E0     		b	.L148
 2168              	.L151:
1897:../Generated_Code/tasks.c ****                                         }
1898:../Generated_Code/tasks.c ****                                         else
1899:../Generated_Code/tasks.c ****                                         {
1900:../Generated_Code/tasks.c ****                                                 /* The delayed list is not empty, get the value of 
1901:../Generated_Code/tasks.c ****                                                 item at the head of the delayed list.  This is the 
1902:../Generated_Code/tasks.c ****                                                 at which the task at the head of the delayed list m
1903:../Generated_Code/tasks.c ****                                                 be removed from the Blocked state. */
1904:../Generated_Code/tasks.c ****                                                 pxTCB = ( TCB_t * ) listGET_OWNER_OF_HEAD_ENTRY( px
 2169              		.loc 1 1904 0
 2170 009a 3F4B     		ldr	r3, .L163+8
 2171 009c 1B68     		ldr	r3, [r3]
 2172 009e DB68     		ldr	r3, [r3, #12]
 2173 00a0 DB68     		ldr	r3, [r3, #12]
 2174 00a2 BB60     		str	r3, [r7, #8]
1905:../Generated_Code/tasks.c ****                                                 xItemValue = listGET_LIST_ITEM_VALUE( &( pxTCB->xGe
 2175              		.loc 1 1905 0
 2176 00a4 BB68     		ldr	r3, [r7, #8]
 2177 00a6 5B68     		ldr	r3, [r3, #4]
 2178 00a8 7B60     		str	r3, [r7, #4]
1906:../Generated_Code/tasks.c **** 
1907:../Generated_Code/tasks.c ****                                                 if( xConstTickCount < xItemValue )
 2179              		.loc 1 1907 0
 2180 00aa 3A69     		ldr	r2, [r7, #16]
 2181 00ac 7B68     		ldr	r3, [r7, #4]
 2182 00ae 9A42     		cmp	r2, r3
 2183 00b0 04D2     		bcs	.L153
1908:../Generated_Code/tasks.c ****                                                 {
1909:../Generated_Code/tasks.c ****                                                         /* It is not time to unblock this item yet,
1910:../Generated_Code/tasks.c ****                                                         item value is the time at which the task at
1911:../Generated_Code/tasks.c ****                                                         of the blocked list must be removed from th
1912:../Generated_Code/tasks.c ****                                                         state - so record the item value in
1913:../Generated_Code/tasks.c ****                                                         xNextTaskUnblockTime. */
1914:../Generated_Code/tasks.c ****                                                         xNextTaskUnblockTime = xItemValue;
 2184              		.loc 1 1914 0
 2185 00b2 3C4B     		ldr	r3, .L163+20
 2186 00b4 7A68     		ldr	r2, [r7, #4]
 2187 00b6 1A60     		str	r2, [r3]
1915:../Generated_Code/tasks.c ****                                                         break;
 2188              		.loc 1 1915 0
 2189 00b8 C046     		mov	r8, r8
 2190 00ba 37E0     		b	.L148
 2191              	.L153:
1916:../Generated_Code/tasks.c ****                                                 }
1917:../Generated_Code/tasks.c ****                                                 else
1918:../Generated_Code/tasks.c ****                                                 {
1919:../Generated_Code/tasks.c ****                                                         mtCOVERAGE_TEST_MARKER();
1920:../Generated_Code/tasks.c ****                                                 }
1921:../Generated_Code/tasks.c **** 
1922:../Generated_Code/tasks.c ****                                                 /* It is time to remove the item from the Blocked s
1923:../Generated_Code/tasks.c ****                                                 ( void ) uxListRemove( &( pxTCB->xGenericListItem )
 2192              		.loc 1 1923 0
 2193 00bc BB68     		ldr	r3, [r7, #8]
 2194 00be 0433     		add	r3, r3, #4
 2195 00c0 181C     		mov	r0, r3
 2196 00c2 FFF7FEFF 		bl	uxListRemove
1924:../Generated_Code/tasks.c **** 
1925:../Generated_Code/tasks.c ****                                                 /* Is the task waiting on an event also?  If so rem
1926:../Generated_Code/tasks.c ****                                                 it from the event list. */
1927:../Generated_Code/tasks.c ****                                                 if( listLIST_ITEM_CONTAINER( &( pxTCB->xEventListIt
 2197              		.loc 1 1927 0
 2198 00c6 BB68     		ldr	r3, [r7, #8]
 2199 00c8 9B6A     		ldr	r3, [r3, #40]
 2200 00ca 002B     		cmp	r3, #0
 2201 00cc 04D0     		beq	.L154
1928:../Generated_Code/tasks.c ****                                                 {
1929:../Generated_Code/tasks.c ****                                                         ( void ) uxListRemove( &( pxTCB->xEventList
 2202              		.loc 1 1929 0
 2203 00ce BB68     		ldr	r3, [r7, #8]
 2204 00d0 1833     		add	r3, r3, #24
 2205 00d2 181C     		mov	r0, r3
 2206 00d4 FFF7FEFF 		bl	uxListRemove
 2207              	.L154:
1930:../Generated_Code/tasks.c ****                                                 }
1931:../Generated_Code/tasks.c ****                                                 else
1932:../Generated_Code/tasks.c ****                                                 {
1933:../Generated_Code/tasks.c ****                                                         mtCOVERAGE_TEST_MARKER();
1934:../Generated_Code/tasks.c ****                                                 }
1935:../Generated_Code/tasks.c **** 
1936:../Generated_Code/tasks.c ****                                                 /* Place the unblocked task into the appropriate re
1937:../Generated_Code/tasks.c ****                                                 list. */
1938:../Generated_Code/tasks.c ****                                                 prvAddTaskToReadyList( pxTCB );
 2208              		.loc 1 1938 0
 2209 00d8 BB68     		ldr	r3, [r7, #8]
 2210 00da DA6A     		ldr	r2, [r3, #44]
 2211 00dc 324B     		ldr	r3, .L163+24
 2212 00de 1B68     		ldr	r3, [r3]
 2213 00e0 9342     		cmp	r3, r2
 2214 00e2 9B41     		sbc	r3, r3, r3
 2215 00e4 5B42     		neg	r3, r3
 2216 00e6 DBB2     		uxtb	r3, r3
 2217 00e8 002B     		cmp	r3, #0
 2218 00ea 03D0     		beq	.L155
 2219              		.loc 1 1938 0 is_stmt 0
 2220 00ec BB68     		ldr	r3, [r7, #8]
 2221 00ee DA6A     		ldr	r2, [r3, #44]
 2222 00f0 2D4B     		ldr	r3, .L163+24
 2223 00f2 1A60     		str	r2, [r3]
 2224              	.L155:
 2225              		.loc 1 1938 0
 2226 00f4 BB68     		ldr	r3, [r7, #8]
 2227 00f6 DA6A     		ldr	r2, [r3, #44]
 2228 00f8 131C     		mov	r3, r2
 2229 00fa 9B00     		lsl	r3, r3, #2
 2230 00fc 9B18     		add	r3, r3, r2
 2231 00fe 9B00     		lsl	r3, r3, #2
 2232 0100 2A4A     		ldr	r2, .L163+28
 2233 0102 9A18     		add	r2, r3, r2
 2234 0104 BB68     		ldr	r3, [r7, #8]
 2235 0106 0433     		add	r3, r3, #4
 2236 0108 101C     		mov	r0, r2
 2237 010a 191C     		mov	r1, r3
 2238 010c FFF7FEFF 		bl	vListInsertEnd
1939:../Generated_Code/tasks.c **** 
1940:../Generated_Code/tasks.c ****                                                 /* A task being unblocked cannot cause an immediate
1941:../Generated_Code/tasks.c ****                                                 context switch if preemption is turned off. */
1942:../Generated_Code/tasks.c ****                                                 #if (  configUSE_PREEMPTION == 1 )
1943:../Generated_Code/tasks.c ****                                                 {
1944:../Generated_Code/tasks.c ****                                                         /* Preemption is on, but a context switch s
1945:../Generated_Code/tasks.c ****                                                         only be performed if the unblocked task has
1946:../Generated_Code/tasks.c ****                                                         priority that is equal to or higher than th
1947:../Generated_Code/tasks.c ****                                                         currently executing task. */
1948:../Generated_Code/tasks.c ****                                                         if( pxTCB->uxPriority >= pxCurrentTCB->uxPr
 2239              		.loc 1 1948 0 is_stmt 1
 2240 0110 BB68     		ldr	r3, [r7, #8]
 2241 0112 D96A     		ldr	r1, [r3, #44]
 2242 0114 264B     		ldr	r3, .L163+32
 2243 0116 1B68     		ldr	r3, [r3]
 2244 0118 DA6A     		ldr	r2, [r3, #44]
 2245 011a 0023     		mov	r3, #0
 2246 011c 9142     		cmp	r1, r2
 2247 011e 5B41     		adc	r3, r3, r3
 2248 0120 DBB2     		uxtb	r3, r3
 2249 0122 002B     		cmp	r3, #0
 2250 0124 A9D0     		beq	.L162
1949:../Generated_Code/tasks.c ****                                                         {
1950:../Generated_Code/tasks.c ****                                                                 xSwitchRequired = pdTRUE;
 2251              		.loc 1 1950 0
 2252 0126 0123     		mov	r3, #1
 2253 0128 7B61     		str	r3, [r7, #20]
1886:../Generated_Code/tasks.c ****                                 for( ;; )
 2254              		.loc 1 1886 0
 2255 012a A6E7     		b	.L162
 2256              	.L148:
 2257              	.LBE21:
1951:../Generated_Code/tasks.c ****                                                         }
1952:../Generated_Code/tasks.c ****                                                         else
1953:../Generated_Code/tasks.c ****                                                         {
1954:../Generated_Code/tasks.c ****                                                                 mtCOVERAGE_TEST_MARKER();
1955:../Generated_Code/tasks.c ****                                                         }
1956:../Generated_Code/tasks.c ****                                                 }
1957:../Generated_Code/tasks.c ****                                                 #endif /* configUSE_PREEMPTION */
1958:../Generated_Code/tasks.c ****                                         }
1959:../Generated_Code/tasks.c ****                                 }
1960:../Generated_Code/tasks.c ****                         }
1961:../Generated_Code/tasks.c ****                 }
1962:../Generated_Code/tasks.c **** 
1963:../Generated_Code/tasks.c ****                 /* Tasks of equal priority to the currently running task will share
1964:../Generated_Code/tasks.c ****                 processing time (time slice) if preemption is on, and the application
1965:../Generated_Code/tasks.c ****                 writer has not explicitly turned time slicing off. */
1966:../Generated_Code/tasks.c ****                 #if ( ( configUSE_PREEMPTION == 1 ) && ( configUSE_TIME_SLICING == 1 ) )
1967:../Generated_Code/tasks.c ****                 {
1968:../Generated_Code/tasks.c ****                         if( listCURRENT_LIST_LENGTH( &( pxReadyTasksLists[ pxCurrentTCB->uxPriority
 2258              		.loc 1 1968 0
 2259 012c 204B     		ldr	r3, .L163+32
 2260 012e 1B68     		ldr	r3, [r3]
 2261 0130 DA6A     		ldr	r2, [r3, #44]
 2262 0132 1E49     		ldr	r1, .L163+28
 2263 0134 131C     		mov	r3, r2
 2264 0136 9B00     		lsl	r3, r3, #2
 2265 0138 9B18     		add	r3, r3, r2
 2266 013a 9B00     		lsl	r3, r3, #2
 2267 013c 5B58     		ldr	r3, [r3, r1]
 2268 013e 0122     		mov	r2, #1
 2269 0140 9A42     		cmp	r2, r3
 2270 0142 9B41     		sbc	r3, r3, r3
 2271 0144 5B42     		neg	r3, r3
 2272 0146 DBB2     		uxtb	r3, r3
 2273 0148 002B     		cmp	r3, #0
 2274 014a 01D0     		beq	.L158
1969:../Generated_Code/tasks.c ****                         {
1970:../Generated_Code/tasks.c ****                                 xSwitchRequired = pdTRUE;
 2275              		.loc 1 1970 0
 2276 014c 0123     		mov	r3, #1
 2277 014e 7B61     		str	r3, [r7, #20]
 2278              	.L158:
 2279              	.LBB25:
 2280              	.LBB26:
1971:../Generated_Code/tasks.c ****                         }
1972:../Generated_Code/tasks.c ****                         else
1973:../Generated_Code/tasks.c ****                         {
1974:../Generated_Code/tasks.c ****                                 mtCOVERAGE_TEST_MARKER();
1975:../Generated_Code/tasks.c ****                         }
1976:../Generated_Code/tasks.c ****                 }
1977:../Generated_Code/tasks.c ****                 #endif /* ( ( configUSE_PREEMPTION == 1 ) && ( configUSE_TIME_SLICING == 1 ) ) */
1978:../Generated_Code/tasks.c **** 
1979:../Generated_Code/tasks.c ****                 #if ( configUSE_TICK_HOOK == 1 )
1980:../Generated_Code/tasks.c ****                 {
1981:../Generated_Code/tasks.c ****                         /* Guard against the tick hook being called when the pended tick
1982:../Generated_Code/tasks.c ****                         count is being unwound (when the scheduler is being unlocked). */
1983:../Generated_Code/tasks.c ****                         if( uxPendedTicks == ( UBaseType_t ) 0U )
 2281              		.loc 1 1983 0
 2282 0150 184B     		ldr	r3, .L163+36
 2283 0152 1B68     		ldr	r3, [r3]
 2284 0154 5A42     		neg	r2, r3
 2285 0156 5341     		adc	r3, r3, r2
 2286 0158 DBB2     		uxtb	r3, r3
 2287 015a 002B     		cmp	r3, #0
 2288 015c 09D0     		beq	.L159
 2289              	.LBB27:
1984:../Generated_Code/tasks.c ****                         {
1985:../Generated_Code/tasks.c ****       extern void vApplicationTickHook( void );
1986:../Generated_Code/tasks.c ****       FreeRTOS0_vApplicationTickHook();
 2290              		.loc 1 1986 0
 2291 015e FFF7FEFF 		bl	_Z30FreeRTOS0_vApplicationTickHookv
 2292 0162 06E0     		b	.L159
 2293              	.L144:
 2294              	.LBE27:
 2295              	.LBE26:
 2296              	.LBE25:
 2297              	.LBE20:
1987:../Generated_Code/tasks.c ****                         }
1988:../Generated_Code/tasks.c ****                         else
1989:../Generated_Code/tasks.c ****                         {
1990:../Generated_Code/tasks.c ****                                 mtCOVERAGE_TEST_MARKER();
1991:../Generated_Code/tasks.c ****                         }
1992:../Generated_Code/tasks.c ****                 }
1993:../Generated_Code/tasks.c ****                 #endif /* configUSE_TICK_HOOK */
1994:../Generated_Code/tasks.c ****         }
1995:../Generated_Code/tasks.c ****         else
1996:../Generated_Code/tasks.c ****         {
1997:../Generated_Code/tasks.c ****                 ++uxPendedTicks;
 2298              		.loc 1 1997 0
 2299 0164 134B     		ldr	r3, .L163+36
 2300 0166 1B68     		ldr	r3, [r3]
 2301 0168 5A1C     		add	r2, r3, #1
 2302 016a 124B     		ldr	r3, .L163+36
 2303 016c 1A60     		str	r2, [r3]
1998:../Generated_Code/tasks.c **** 
1999:../Generated_Code/tasks.c ****                 /* The tick hook gets called at regular intervals, even if the
2000:../Generated_Code/tasks.c ****                 scheduler is locked. */
2001:../Generated_Code/tasks.c ****                 #if ( configUSE_TICK_HOOK == 1 )
2002:../Generated_Code/tasks.c ****                 {
2003:../Generated_Code/tasks.c ****       FreeRTOS0_vApplicationTickHook();
 2304              		.loc 1 2003 0
 2305 016e FFF7FEFF 		bl	_Z30FreeRTOS0_vApplicationTickHookv
 2306              	.L159:
 2307              	.LBE19:
2004:../Generated_Code/tasks.c ****                 }
2005:../Generated_Code/tasks.c ****                 #endif
2006:../Generated_Code/tasks.c ****         }
2007:../Generated_Code/tasks.c **** 
2008:../Generated_Code/tasks.c ****         #if ( configUSE_PREEMPTION == 1 )
2009:../Generated_Code/tasks.c ****         {
2010:../Generated_Code/tasks.c ****                 if( xYieldPending != pdFALSE )
 2308              		.loc 1 2010 0
 2309 0172 114B     		ldr	r3, .L163+40
 2310 0174 1B68     		ldr	r3, [r3]
 2311 0176 5A1E     		sub	r2, r3, #1
 2312 0178 9341     		sbc	r3, r3, r2
 2313 017a DBB2     		uxtb	r3, r3
 2314 017c 002B     		cmp	r3, #0
 2315 017e 01D0     		beq	.L160
2011:../Generated_Code/tasks.c ****                 {
2012:../Generated_Code/tasks.c ****                         xSwitchRequired = pdTRUE;
 2316              		.loc 1 2012 0
 2317 0180 0123     		mov	r3, #1
 2318 0182 7B61     		str	r3, [r7, #20]
 2319              	.L160:
2013:../Generated_Code/tasks.c ****                 }
2014:../Generated_Code/tasks.c ****                 else
2015:../Generated_Code/tasks.c ****                 {
2016:../Generated_Code/tasks.c ****                         mtCOVERAGE_TEST_MARKER();
2017:../Generated_Code/tasks.c ****                 }
2018:../Generated_Code/tasks.c ****         }
2019:../Generated_Code/tasks.c ****         #endif /* configUSE_PREEMPTION */
2020:../Generated_Code/tasks.c **** 
2021:../Generated_Code/tasks.c ****         return xSwitchRequired;
 2320              		.loc 1 2021 0
 2321 0184 7B69     		ldr	r3, [r7, #20]
 2322              	.LBE18:
2022:../Generated_Code/tasks.c **** }
 2323              		.loc 1 2022 0
 2324 0186 181C     		mov	r0, r3
 2325 0188 BD46     		mov	sp, r7
 2326 018a 06B0     		add	sp, sp, #24
 2327              		@ sp needed for prologue
 2328 018c 80BD     		pop	{r7, pc}
 2329              	.L164:
 2330 018e C046     		.align	2
 2331              	.L163:
 2332 0190 00000000 		.word	_ZL20uxSchedulerSuspended
 2333 0194 00000000 		.word	_ZL10xTickCount
 2334 0198 00000000 		.word	_ZL17pxDelayedTaskList
 2335 019c 00000000 		.word	_ZL25pxOverflowDelayedTaskList
 2336 01a0 00000000 		.word	_ZL15xNumOfOverflows
 2337 01a4 00000000 		.word	_ZL20xNextTaskUnblockTime
 2338 01a8 00000000 		.word	_ZL18uxTopReadyPriority
 2339 01ac 00000000 		.word	_ZL17pxReadyTasksLists
 2340 01b0 00000000 		.word	pxCurrentTCB
 2341 01b4 00000000 		.word	_ZL13uxPendedTicks
 2342 01b8 00000000 		.word	_ZL13xYieldPending
 2343              		.cfi_endproc
 2344              	.LFE25:
 2346              		.section	.text.vTaskSwitchContext,"ax",%progbits
 2347              		.align	2
 2348              		.global	vTaskSwitchContext
 2349              		.code	16
 2350              		.thumb_func
 2352              	vTaskSwitchContext:
 2353              	.LFB26:
